
F446RE.elf:     file format elf32-littlearm

Sections:
Idx Name          Size      VMA       LMA       File off  Algn
  0 .isr_vector   000001c4  08000000  08000000  00001000  2**0
                  CONTENTS, ALLOC, LOAD, READONLY, DATA
  1 .text         00003a4c  080001c8  080001c8  000011c8  2**3
                  CONTENTS, ALLOC, LOAD, READONLY, CODE
  2 .rodata       00000018  08003c14  08003c14  00004c14  2**2
                  CONTENTS, ALLOC, LOAD, READONLY, DATA
  3 .ARM.extab    00000000  08003c2c  08003c2c  0000500c  2**0
                  CONTENTS, READONLY
  4 .ARM          00000008  08003c2c  08003c2c  00004c2c  2**2
                  CONTENTS, ALLOC, LOAD, READONLY, DATA
  5 .preinit_array 00000000  08003c34  08003c34  0000500c  2**0
                  CONTENTS, ALLOC, LOAD, DATA
  6 .init_array   00000004  08003c34  08003c34  00004c34  2**2
                  CONTENTS, ALLOC, LOAD, READONLY, DATA
  7 .fini_array   00000004  08003c38  08003c38  00004c38  2**2
                  CONTENTS, ALLOC, LOAD, READONLY, DATA
  8 .data         0000000c  20000000  08003c3c  00005000  2**2
                  CONTENTS, ALLOC, LOAD, DATA
  9 .bss          00000164  2000000c  08003c48  0000500c  2**2
                  ALLOC
 10 ._user_heap_stack 00000600  20000170  08003c48  00005170  2**0
                  ALLOC
 11 .ARM.attributes 00000030  00000000  00000000  0000500c  2**0
                  CONTENTS, READONLY
 12 .debug_info   0000ff1a  00000000  00000000  0000503c  2**0
                  CONTENTS, READONLY, DEBUGGING, OCTETS
 13 .debug_abbrev 000025f3  00000000  00000000  00014f56  2**0
                  CONTENTS, READONLY, DEBUGGING, OCTETS
 14 .debug_aranges 00000eb8  00000000  00000000  00017550  2**3
                  CONTENTS, READONLY, DEBUGGING, OCTETS
 15 .debug_rnglists 00000b78  00000000  00000000  00018408  2**0
                  CONTENTS, READONLY, DEBUGGING, OCTETS
 16 .debug_macro  000227e7  00000000  00000000  00018f80  2**0
                  CONTENTS, READONLY, DEBUGGING, OCTETS
 17 .debug_line   00011849  00000000  00000000  0003b767  2**0
                  CONTENTS, READONLY, DEBUGGING, OCTETS
 18 .debug_str    000d263a  00000000  00000000  0004cfb0  2**0
                  CONTENTS, READONLY, DEBUGGING, OCTETS
 19 .comment      00000043  00000000  00000000  0011f5ea  2**0
                  CONTENTS, READONLY
 20 .debug_frame  00003df4  00000000  00000000  0011f630  2**2
                  CONTENTS, READONLY, DEBUGGING, OCTETS
 21 .debug_line_str 0000007c  00000000  00000000  00123424  2**0
                  CONTENTS, READONLY, DEBUGGING, OCTETS

Disassembly of section .text:

080001c8 <__do_global_dtors_aux>:
 80001c8:	b510      	push	{r4, lr}
 80001ca:	4c05      	ldr	r4, [pc, #20]	@ (80001e0 <__do_global_dtors_aux+0x18>)
 80001cc:	7823      	ldrb	r3, [r4, #0]
 80001ce:	b933      	cbnz	r3, 80001de <__do_global_dtors_aux+0x16>
 80001d0:	4b04      	ldr	r3, [pc, #16]	@ (80001e4 <__do_global_dtors_aux+0x1c>)
 80001d2:	b113      	cbz	r3, 80001da <__do_global_dtors_aux+0x12>
 80001d4:	4804      	ldr	r0, [pc, #16]	@ (80001e8 <__do_global_dtors_aux+0x20>)
 80001d6:	f3af 8000 	nop.w
 80001da:	2301      	movs	r3, #1
 80001dc:	7023      	strb	r3, [r4, #0]
 80001de:	bd10      	pop	{r4, pc}
 80001e0:	2000000c 	.word	0x2000000c
 80001e4:	00000000 	.word	0x00000000
 80001e8:	08003bfc 	.word	0x08003bfc

080001ec <frame_dummy>:
 80001ec:	b508      	push	{r3, lr}
 80001ee:	4b03      	ldr	r3, [pc, #12]	@ (80001fc <frame_dummy+0x10>)
 80001f0:	b11b      	cbz	r3, 80001fa <frame_dummy+0xe>
 80001f2:	4903      	ldr	r1, [pc, #12]	@ (8000200 <frame_dummy+0x14>)
 80001f4:	4803      	ldr	r0, [pc, #12]	@ (8000204 <frame_dummy+0x18>)
 80001f6:	f3af 8000 	nop.w
 80001fa:	bd08      	pop	{r3, pc}
 80001fc:	00000000 	.word	0x00000000
 8000200:	20000010 	.word	0x20000010
 8000204:	08003bfc 	.word	0x08003bfc

08000208 <__aeabi_drsub>:
 8000208:	f081 4100 	eor.w	r1, r1, #2147483648	@ 0x80000000
 800020c:	e002      	b.n	8000214 <__adddf3>
 800020e:	bf00      	nop

08000210 <__aeabi_dsub>:
 8000210:	f083 4300 	eor.w	r3, r3, #2147483648	@ 0x80000000

08000214 <__adddf3>:
 8000214:	b530      	push	{r4, r5, lr}
 8000216:	ea4f 0441 	mov.w	r4, r1, lsl #1
 800021a:	ea4f 0543 	mov.w	r5, r3, lsl #1
 800021e:	ea94 0f05 	teq	r4, r5
 8000222:	bf08      	it	eq
 8000224:	ea90 0f02 	teqeq	r0, r2
 8000228:	bf1f      	itttt	ne
 800022a:	ea54 0c00 	orrsne.w	ip, r4, r0
 800022e:	ea55 0c02 	orrsne.w	ip, r5, r2
 8000232:	ea7f 5c64 	mvnsne.w	ip, r4, asr #21
 8000236:	ea7f 5c65 	mvnsne.w	ip, r5, asr #21
 800023a:	f000 80e2 	beq.w	8000402 <__adddf3+0x1ee>
 800023e:	ea4f 5454 	mov.w	r4, r4, lsr #21
 8000242:	ebd4 5555 	rsbs	r5, r4, r5, lsr #21
 8000246:	bfb8      	it	lt
 8000248:	426d      	neglt	r5, r5
 800024a:	dd0c      	ble.n	8000266 <__adddf3+0x52>
 800024c:	442c      	add	r4, r5
 800024e:	ea80 0202 	eor.w	r2, r0, r2
 8000252:	ea81 0303 	eor.w	r3, r1, r3
 8000256:	ea82 0000 	eor.w	r0, r2, r0
 800025a:	ea83 0101 	eor.w	r1, r3, r1
 800025e:	ea80 0202 	eor.w	r2, r0, r2
 8000262:	ea81 0303 	eor.w	r3, r1, r3
 8000266:	2d36      	cmp	r5, #54	@ 0x36
 8000268:	bf88      	it	hi
 800026a:	bd30      	pophi	{r4, r5, pc}
 800026c:	f011 4f00 	tst.w	r1, #2147483648	@ 0x80000000
 8000270:	ea4f 3101 	mov.w	r1, r1, lsl #12
 8000274:	f44f 1c80 	mov.w	ip, #1048576	@ 0x100000
 8000278:	ea4c 3111 	orr.w	r1, ip, r1, lsr #12
 800027c:	d002      	beq.n	8000284 <__adddf3+0x70>
 800027e:	4240      	negs	r0, r0
 8000280:	eb61 0141 	sbc.w	r1, r1, r1, lsl #1
 8000284:	f013 4f00 	tst.w	r3, #2147483648	@ 0x80000000
 8000288:	ea4f 3303 	mov.w	r3, r3, lsl #12
 800028c:	ea4c 3313 	orr.w	r3, ip, r3, lsr #12
 8000290:	d002      	beq.n	8000298 <__adddf3+0x84>
 8000292:	4252      	negs	r2, r2
 8000294:	eb63 0343 	sbc.w	r3, r3, r3, lsl #1
 8000298:	ea94 0f05 	teq	r4, r5
 800029c:	f000 80a7 	beq.w	80003ee <__adddf3+0x1da>
 80002a0:	f1a4 0401 	sub.w	r4, r4, #1
 80002a4:	f1d5 0e20 	rsbs	lr, r5, #32
 80002a8:	db0d      	blt.n	80002c6 <__adddf3+0xb2>
 80002aa:	fa02 fc0e 	lsl.w	ip, r2, lr
 80002ae:	fa22 f205 	lsr.w	r2, r2, r5
 80002b2:	1880      	adds	r0, r0, r2
 80002b4:	f141 0100 	adc.w	r1, r1, #0
 80002b8:	fa03 f20e 	lsl.w	r2, r3, lr
 80002bc:	1880      	adds	r0, r0, r2
 80002be:	fa43 f305 	asr.w	r3, r3, r5
 80002c2:	4159      	adcs	r1, r3
 80002c4:	e00e      	b.n	80002e4 <__adddf3+0xd0>
 80002c6:	f1a5 0520 	sub.w	r5, r5, #32
 80002ca:	f10e 0e20 	add.w	lr, lr, #32
 80002ce:	2a01      	cmp	r2, #1
 80002d0:	fa03 fc0e 	lsl.w	ip, r3, lr
 80002d4:	bf28      	it	cs
 80002d6:	f04c 0c02 	orrcs.w	ip, ip, #2
 80002da:	fa43 f305 	asr.w	r3, r3, r5
 80002de:	18c0      	adds	r0, r0, r3
 80002e0:	eb51 71e3 	adcs.w	r1, r1, r3, asr #31
 80002e4:	f001 4500 	and.w	r5, r1, #2147483648	@ 0x80000000
 80002e8:	d507      	bpl.n	80002fa <__adddf3+0xe6>
 80002ea:	f04f 0e00 	mov.w	lr, #0
 80002ee:	f1dc 0c00 	rsbs	ip, ip, #0
 80002f2:	eb7e 0000 	sbcs.w	r0, lr, r0
 80002f6:	eb6e 0101 	sbc.w	r1, lr, r1
 80002fa:	f5b1 1f80 	cmp.w	r1, #1048576	@ 0x100000
 80002fe:	d31b      	bcc.n	8000338 <__adddf3+0x124>
 8000300:	f5b1 1f00 	cmp.w	r1, #2097152	@ 0x200000
 8000304:	d30c      	bcc.n	8000320 <__adddf3+0x10c>
 8000306:	0849      	lsrs	r1, r1, #1
 8000308:	ea5f 0030 	movs.w	r0, r0, rrx
 800030c:	ea4f 0c3c 	mov.w	ip, ip, rrx
 8000310:	f104 0401 	add.w	r4, r4, #1
 8000314:	ea4f 5244 	mov.w	r2, r4, lsl #21
 8000318:	f512 0f80 	cmn.w	r2, #4194304	@ 0x400000
 800031c:	f080 809a 	bcs.w	8000454 <__adddf3+0x240>
 8000320:	f1bc 4f00 	cmp.w	ip, #2147483648	@ 0x80000000
 8000324:	bf08      	it	eq
 8000326:	ea5f 0c50 	movseq.w	ip, r0, lsr #1
 800032a:	f150 0000 	adcs.w	r0, r0, #0
 800032e:	eb41 5104 	adc.w	r1, r1, r4, lsl #20
 8000332:	ea41 0105 	orr.w	r1, r1, r5
 8000336:	bd30      	pop	{r4, r5, pc}
 8000338:	ea5f 0c4c 	movs.w	ip, ip, lsl #1
 800033c:	4140      	adcs	r0, r0
 800033e:	eb41 0101 	adc.w	r1, r1, r1
 8000342:	3c01      	subs	r4, #1
 8000344:	bf28      	it	cs
 8000346:	f5b1 1f80 	cmpcs.w	r1, #1048576	@ 0x100000
 800034a:	d2e9      	bcs.n	8000320 <__adddf3+0x10c>
 800034c:	f091 0f00 	teq	r1, #0
 8000350:	bf04      	itt	eq
 8000352:	4601      	moveq	r1, r0
 8000354:	2000      	moveq	r0, #0
 8000356:	fab1 f381 	clz	r3, r1
 800035a:	bf08      	it	eq
 800035c:	3320      	addeq	r3, #32
 800035e:	f1a3 030b 	sub.w	r3, r3, #11
 8000362:	f1b3 0220 	subs.w	r2, r3, #32
 8000366:	da0c      	bge.n	8000382 <__adddf3+0x16e>
 8000368:	320c      	adds	r2, #12
 800036a:	dd08      	ble.n	800037e <__adddf3+0x16a>
 800036c:	f102 0c14 	add.w	ip, r2, #20
 8000370:	f1c2 020c 	rsb	r2, r2, #12
 8000374:	fa01 f00c 	lsl.w	r0, r1, ip
 8000378:	fa21 f102 	lsr.w	r1, r1, r2
 800037c:	e00c      	b.n	8000398 <__adddf3+0x184>
 800037e:	f102 0214 	add.w	r2, r2, #20
 8000382:	bfd8      	it	le
 8000384:	f1c2 0c20 	rsble	ip, r2, #32
 8000388:	fa01 f102 	lsl.w	r1, r1, r2
 800038c:	fa20 fc0c 	lsr.w	ip, r0, ip
 8000390:	bfdc      	itt	le
 8000392:	ea41 010c 	orrle.w	r1, r1, ip
 8000396:	4090      	lslle	r0, r2
 8000398:	1ae4      	subs	r4, r4, r3
 800039a:	bfa2      	ittt	ge
 800039c:	eb01 5104 	addge.w	r1, r1, r4, lsl #20
 80003a0:	4329      	orrge	r1, r5
 80003a2:	bd30      	popge	{r4, r5, pc}
 80003a4:	ea6f 0404 	mvn.w	r4, r4
 80003a8:	3c1f      	subs	r4, #31
 80003aa:	da1c      	bge.n	80003e6 <__adddf3+0x1d2>
 80003ac:	340c      	adds	r4, #12
 80003ae:	dc0e      	bgt.n	80003ce <__adddf3+0x1ba>
 80003b0:	f104 0414 	add.w	r4, r4, #20
 80003b4:	f1c4 0220 	rsb	r2, r4, #32
 80003b8:	fa20 f004 	lsr.w	r0, r0, r4
 80003bc:	fa01 f302 	lsl.w	r3, r1, r2
 80003c0:	ea40 0003 	orr.w	r0, r0, r3
 80003c4:	fa21 f304 	lsr.w	r3, r1, r4
 80003c8:	ea45 0103 	orr.w	r1, r5, r3
 80003cc:	bd30      	pop	{r4, r5, pc}
 80003ce:	f1c4 040c 	rsb	r4, r4, #12
 80003d2:	f1c4 0220 	rsb	r2, r4, #32
 80003d6:	fa20 f002 	lsr.w	r0, r0, r2
 80003da:	fa01 f304 	lsl.w	r3, r1, r4
 80003de:	ea40 0003 	orr.w	r0, r0, r3
 80003e2:	4629      	mov	r1, r5
 80003e4:	bd30      	pop	{r4, r5, pc}
 80003e6:	fa21 f004 	lsr.w	r0, r1, r4
 80003ea:	4629      	mov	r1, r5
 80003ec:	bd30      	pop	{r4, r5, pc}
 80003ee:	f094 0f00 	teq	r4, #0
 80003f2:	f483 1380 	eor.w	r3, r3, #1048576	@ 0x100000
 80003f6:	bf06      	itte	eq
 80003f8:	f481 1180 	eoreq.w	r1, r1, #1048576	@ 0x100000
 80003fc:	3401      	addeq	r4, #1
 80003fe:	3d01      	subne	r5, #1
 8000400:	e74e      	b.n	80002a0 <__adddf3+0x8c>
 8000402:	ea7f 5c64 	mvns.w	ip, r4, asr #21
 8000406:	bf18      	it	ne
 8000408:	ea7f 5c65 	mvnsne.w	ip, r5, asr #21
 800040c:	d029      	beq.n	8000462 <__adddf3+0x24e>
 800040e:	ea94 0f05 	teq	r4, r5
 8000412:	bf08      	it	eq
 8000414:	ea90 0f02 	teqeq	r0, r2
 8000418:	d005      	beq.n	8000426 <__adddf3+0x212>
 800041a:	ea54 0c00 	orrs.w	ip, r4, r0
 800041e:	bf04      	itt	eq
 8000420:	4619      	moveq	r1, r3
 8000422:	4610      	moveq	r0, r2
 8000424:	bd30      	pop	{r4, r5, pc}
 8000426:	ea91 0f03 	teq	r1, r3
 800042a:	bf1e      	ittt	ne
 800042c:	2100      	movne	r1, #0
 800042e:	2000      	movne	r0, #0
 8000430:	bd30      	popne	{r4, r5, pc}
 8000432:	ea5f 5c54 	movs.w	ip, r4, lsr #21
 8000436:	d105      	bne.n	8000444 <__adddf3+0x230>
 8000438:	0040      	lsls	r0, r0, #1
 800043a:	4149      	adcs	r1, r1
 800043c:	bf28      	it	cs
 800043e:	f041 4100 	orrcs.w	r1, r1, #2147483648	@ 0x80000000
 8000442:	bd30      	pop	{r4, r5, pc}
 8000444:	f514 0480 	adds.w	r4, r4, #4194304	@ 0x400000
 8000448:	bf3c      	itt	cc
 800044a:	f501 1180 	addcc.w	r1, r1, #1048576	@ 0x100000
 800044e:	bd30      	popcc	{r4, r5, pc}
 8000450:	f001 4500 	and.w	r5, r1, #2147483648	@ 0x80000000
 8000454:	f045 41fe 	orr.w	r1, r5, #2130706432	@ 0x7f000000
 8000458:	f441 0170 	orr.w	r1, r1, #15728640	@ 0xf00000
 800045c:	f04f 0000 	mov.w	r0, #0
 8000460:	bd30      	pop	{r4, r5, pc}
 8000462:	ea7f 5c64 	mvns.w	ip, r4, asr #21
 8000466:	bf1a      	itte	ne
 8000468:	4619      	movne	r1, r3
 800046a:	4610      	movne	r0, r2
 800046c:	ea7f 5c65 	mvnseq.w	ip, r5, asr #21
 8000470:	bf1c      	itt	ne
 8000472:	460b      	movne	r3, r1
 8000474:	4602      	movne	r2, r0
 8000476:	ea50 3401 	orrs.w	r4, r0, r1, lsl #12
 800047a:	bf06      	itte	eq
 800047c:	ea52 3503 	orrseq.w	r5, r2, r3, lsl #12
 8000480:	ea91 0f03 	teqeq	r1, r3
 8000484:	f441 2100 	orrne.w	r1, r1, #524288	@ 0x80000
 8000488:	bd30      	pop	{r4, r5, pc}
 800048a:	bf00      	nop

0800048c <__aeabi_ui2d>:
 800048c:	f090 0f00 	teq	r0, #0
 8000490:	bf04      	itt	eq
 8000492:	2100      	moveq	r1, #0
 8000494:	4770      	bxeq	lr
 8000496:	b530      	push	{r4, r5, lr}
 8000498:	f44f 6480 	mov.w	r4, #1024	@ 0x400
 800049c:	f104 0432 	add.w	r4, r4, #50	@ 0x32
 80004a0:	f04f 0500 	mov.w	r5, #0
 80004a4:	f04f 0100 	mov.w	r1, #0
 80004a8:	e750      	b.n	800034c <__adddf3+0x138>
 80004aa:	bf00      	nop

080004ac <__aeabi_i2d>:
 80004ac:	f090 0f00 	teq	r0, #0
 80004b0:	bf04      	itt	eq
 80004b2:	2100      	moveq	r1, #0
 80004b4:	4770      	bxeq	lr
 80004b6:	b530      	push	{r4, r5, lr}
 80004b8:	f44f 6480 	mov.w	r4, #1024	@ 0x400
 80004bc:	f104 0432 	add.w	r4, r4, #50	@ 0x32
 80004c0:	f010 4500 	ands.w	r5, r0, #2147483648	@ 0x80000000
 80004c4:	bf48      	it	mi
 80004c6:	4240      	negmi	r0, r0
 80004c8:	f04f 0100 	mov.w	r1, #0
 80004cc:	e73e      	b.n	800034c <__adddf3+0x138>
 80004ce:	bf00      	nop

080004d0 <__aeabi_f2d>:
 80004d0:	0042      	lsls	r2, r0, #1
 80004d2:	ea4f 01e2 	mov.w	r1, r2, asr #3
 80004d6:	ea4f 0131 	mov.w	r1, r1, rrx
 80004da:	ea4f 7002 	mov.w	r0, r2, lsl #28
 80004de:	bf1f      	itttt	ne
 80004e0:	f012 437f 	andsne.w	r3, r2, #4278190080	@ 0xff000000
 80004e4:	f093 4f7f 	teqne	r3, #4278190080	@ 0xff000000
 80004e8:	f081 5160 	eorne.w	r1, r1, #939524096	@ 0x38000000
 80004ec:	4770      	bxne	lr
 80004ee:	f032 427f 	bics.w	r2, r2, #4278190080	@ 0xff000000
 80004f2:	bf08      	it	eq
 80004f4:	4770      	bxeq	lr
 80004f6:	f093 4f7f 	teq	r3, #4278190080	@ 0xff000000
 80004fa:	bf04      	itt	eq
 80004fc:	f441 2100 	orreq.w	r1, r1, #524288	@ 0x80000
 8000500:	4770      	bxeq	lr
 8000502:	b530      	push	{r4, r5, lr}
 8000504:	f44f 7460 	mov.w	r4, #896	@ 0x380
 8000508:	f001 4500 	and.w	r5, r1, #2147483648	@ 0x80000000
 800050c:	f021 4100 	bic.w	r1, r1, #2147483648	@ 0x80000000
 8000510:	e71c      	b.n	800034c <__adddf3+0x138>
 8000512:	bf00      	nop

08000514 <__aeabi_ul2d>:
 8000514:	ea50 0201 	orrs.w	r2, r0, r1
 8000518:	bf08      	it	eq
 800051a:	4770      	bxeq	lr
 800051c:	b530      	push	{r4, r5, lr}
 800051e:	f04f 0500 	mov.w	r5, #0
 8000522:	e00a      	b.n	800053a <__aeabi_l2d+0x16>

08000524 <__aeabi_l2d>:
 8000524:	ea50 0201 	orrs.w	r2, r0, r1
 8000528:	bf08      	it	eq
 800052a:	4770      	bxeq	lr
 800052c:	b530      	push	{r4, r5, lr}
 800052e:	f011 4500 	ands.w	r5, r1, #2147483648	@ 0x80000000
 8000532:	d502      	bpl.n	800053a <__aeabi_l2d+0x16>
 8000534:	4240      	negs	r0, r0
 8000536:	eb61 0141 	sbc.w	r1, r1, r1, lsl #1
 800053a:	f44f 6480 	mov.w	r4, #1024	@ 0x400
 800053e:	f104 0432 	add.w	r4, r4, #50	@ 0x32
 8000542:	ea5f 5c91 	movs.w	ip, r1, lsr #22
 8000546:	f43f aed8 	beq.w	80002fa <__adddf3+0xe6>
 800054a:	f04f 0203 	mov.w	r2, #3
 800054e:	ea5f 0cdc 	movs.w	ip, ip, lsr #3
 8000552:	bf18      	it	ne
 8000554:	3203      	addne	r2, #3
 8000556:	ea5f 0cdc 	movs.w	ip, ip, lsr #3
 800055a:	bf18      	it	ne
 800055c:	3203      	addne	r2, #3
 800055e:	eb02 02dc 	add.w	r2, r2, ip, lsr #3
 8000562:	f1c2 0320 	rsb	r3, r2, #32
 8000566:	fa00 fc03 	lsl.w	ip, r0, r3
 800056a:	fa20 f002 	lsr.w	r0, r0, r2
 800056e:	fa01 fe03 	lsl.w	lr, r1, r3
 8000572:	ea40 000e 	orr.w	r0, r0, lr
 8000576:	fa21 f102 	lsr.w	r1, r1, r2
 800057a:	4414      	add	r4, r2
 800057c:	e6bd      	b.n	80002fa <__adddf3+0xe6>
 800057e:	bf00      	nop

08000580 <__aeabi_d2f>:
 8000580:	ea4f 0241 	mov.w	r2, r1, lsl #1
 8000584:	f1b2 43e0 	subs.w	r3, r2, #1879048192	@ 0x70000000
 8000588:	bf24      	itt	cs
 800058a:	f5b3 1c00 	subscs.w	ip, r3, #2097152	@ 0x200000
 800058e:	f1dc 5cfe 	rsbscs	ip, ip, #532676608	@ 0x1fc00000
 8000592:	d90d      	bls.n	80005b0 <__aeabi_d2f+0x30>
 8000594:	f001 4c00 	and.w	ip, r1, #2147483648	@ 0x80000000
 8000598:	ea4f 02c0 	mov.w	r2, r0, lsl #3
 800059c:	ea4c 7050 	orr.w	r0, ip, r0, lsr #29
 80005a0:	f1b2 4f00 	cmp.w	r2, #2147483648	@ 0x80000000
 80005a4:	eb40 0083 	adc.w	r0, r0, r3, lsl #2
 80005a8:	bf08      	it	eq
 80005aa:	f020 0001 	biceq.w	r0, r0, #1
 80005ae:	4770      	bx	lr
 80005b0:	f011 4f80 	tst.w	r1, #1073741824	@ 0x40000000
 80005b4:	d121      	bne.n	80005fa <__aeabi_d2f+0x7a>
 80005b6:	f113 7238 	adds.w	r2, r3, #48234496	@ 0x2e00000
 80005ba:	bfbc      	itt	lt
 80005bc:	f001 4000 	andlt.w	r0, r1, #2147483648	@ 0x80000000
 80005c0:	4770      	bxlt	lr
 80005c2:	f441 1180 	orr.w	r1, r1, #1048576	@ 0x100000
 80005c6:	ea4f 5252 	mov.w	r2, r2, lsr #21
 80005ca:	f1c2 0218 	rsb	r2, r2, #24
 80005ce:	f1c2 0c20 	rsb	ip, r2, #32
 80005d2:	fa10 f30c 	lsls.w	r3, r0, ip
 80005d6:	fa20 f002 	lsr.w	r0, r0, r2
 80005da:	bf18      	it	ne
 80005dc:	f040 0001 	orrne.w	r0, r0, #1
 80005e0:	ea4f 23c1 	mov.w	r3, r1, lsl #11
 80005e4:	ea4f 23d3 	mov.w	r3, r3, lsr #11
 80005e8:	fa03 fc0c 	lsl.w	ip, r3, ip
 80005ec:	ea40 000c 	orr.w	r0, r0, ip
 80005f0:	fa23 f302 	lsr.w	r3, r3, r2
 80005f4:	ea4f 0343 	mov.w	r3, r3, lsl #1
 80005f8:	e7cc      	b.n	8000594 <__aeabi_d2f+0x14>
 80005fa:	ea7f 5362 	mvns.w	r3, r2, asr #21
 80005fe:	d107      	bne.n	8000610 <__aeabi_d2f+0x90>
 8000600:	ea50 3301 	orrs.w	r3, r0, r1, lsl #12
 8000604:	bf1e      	ittt	ne
 8000606:	f04f 40fe 	movne.w	r0, #2130706432	@ 0x7f000000
 800060a:	f440 0040 	orrne.w	r0, r0, #12582912	@ 0xc00000
 800060e:	4770      	bxne	lr
 8000610:	f001 4000 	and.w	r0, r1, #2147483648	@ 0x80000000
 8000614:	f040 40fe 	orr.w	r0, r0, #2130706432	@ 0x7f000000
 8000618:	f440 0000 	orr.w	r0, r0, #8388608	@ 0x800000
 800061c:	4770      	bx	lr
 800061e:	bf00      	nop

08000620 <__aeabi_uldivmod>:
 8000620:	b953      	cbnz	r3, 8000638 <__aeabi_uldivmod+0x18>
 8000622:	b94a      	cbnz	r2, 8000638 <__aeabi_uldivmod+0x18>
 8000624:	2900      	cmp	r1, #0
 8000626:	bf08      	it	eq
 8000628:	2800      	cmpeq	r0, #0
 800062a:	bf1c      	itt	ne
 800062c:	f04f 31ff 	movne.w	r1, #4294967295	@ 0xffffffff
 8000630:	f04f 30ff 	movne.w	r0, #4294967295	@ 0xffffffff
 8000634:	f000 b988 	b.w	8000948 <__aeabi_idiv0>
 8000638:	f1ad 0c08 	sub.w	ip, sp, #8
 800063c:	e96d ce04 	strd	ip, lr, [sp, #-16]!
 8000640:	f000 f806 	bl	8000650 <__udivmoddi4>
 8000644:	f8dd e004 	ldr.w	lr, [sp, #4]
 8000648:	e9dd 2302 	ldrd	r2, r3, [sp, #8]
 800064c:	b004      	add	sp, #16
 800064e:	4770      	bx	lr

08000650 <__udivmoddi4>:
 8000650:	e92d 47f0 	stmdb	sp!, {r4, r5, r6, r7, r8, r9, sl, lr}
 8000654:	9d08      	ldr	r5, [sp, #32]
 8000656:	468e      	mov	lr, r1
 8000658:	4604      	mov	r4, r0
 800065a:	4688      	mov	r8, r1
 800065c:	2b00      	cmp	r3, #0
 800065e:	d14a      	bne.n	80006f6 <__udivmoddi4+0xa6>
 8000660:	428a      	cmp	r2, r1
 8000662:	4617      	mov	r7, r2
 8000664:	d962      	bls.n	800072c <__udivmoddi4+0xdc>
 8000666:	fab2 f682 	clz	r6, r2
 800066a:	b14e      	cbz	r6, 8000680 <__udivmoddi4+0x30>
 800066c:	f1c6 0320 	rsb	r3, r6, #32
 8000670:	fa01 f806 	lsl.w	r8, r1, r6
 8000674:	fa20 f303 	lsr.w	r3, r0, r3
 8000678:	40b7      	lsls	r7, r6
 800067a:	ea43 0808 	orr.w	r8, r3, r8
 800067e:	40b4      	lsls	r4, r6
 8000680:	ea4f 4e17 	mov.w	lr, r7, lsr #16
 8000684:	fa1f fc87 	uxth.w	ip, r7
 8000688:	fbb8 f1fe 	udiv	r1, r8, lr
 800068c:	0c23      	lsrs	r3, r4, #16
 800068e:	fb0e 8811 	mls	r8, lr, r1, r8
 8000692:	ea43 4308 	orr.w	r3, r3, r8, lsl #16
 8000696:	fb01 f20c 	mul.w	r2, r1, ip
 800069a:	429a      	cmp	r2, r3
 800069c:	d909      	bls.n	80006b2 <__udivmoddi4+0x62>
 800069e:	18fb      	adds	r3, r7, r3
 80006a0:	f101 30ff 	add.w	r0, r1, #4294967295	@ 0xffffffff
 80006a4:	f080 80ea 	bcs.w	800087c <__udivmoddi4+0x22c>
 80006a8:	429a      	cmp	r2, r3
 80006aa:	f240 80e7 	bls.w	800087c <__udivmoddi4+0x22c>
 80006ae:	3902      	subs	r1, #2
 80006b0:	443b      	add	r3, r7
 80006b2:	1a9a      	subs	r2, r3, r2
 80006b4:	b2a3      	uxth	r3, r4
 80006b6:	fbb2 f0fe 	udiv	r0, r2, lr
 80006ba:	fb0e 2210 	mls	r2, lr, r0, r2
 80006be:	ea43 4302 	orr.w	r3, r3, r2, lsl #16
 80006c2:	fb00 fc0c 	mul.w	ip, r0, ip
 80006c6:	459c      	cmp	ip, r3
 80006c8:	d909      	bls.n	80006de <__udivmoddi4+0x8e>
 80006ca:	18fb      	adds	r3, r7, r3
 80006cc:	f100 32ff 	add.w	r2, r0, #4294967295	@ 0xffffffff
 80006d0:	f080 80d6 	bcs.w	8000880 <__udivmoddi4+0x230>
 80006d4:	459c      	cmp	ip, r3
 80006d6:	f240 80d3 	bls.w	8000880 <__udivmoddi4+0x230>
 80006da:	443b      	add	r3, r7
 80006dc:	3802      	subs	r0, #2
 80006de:	ea40 4001 	orr.w	r0, r0, r1, lsl #16
 80006e2:	eba3 030c 	sub.w	r3, r3, ip
 80006e6:	2100      	movs	r1, #0
 80006e8:	b11d      	cbz	r5, 80006f2 <__udivmoddi4+0xa2>
 80006ea:	40f3      	lsrs	r3, r6
 80006ec:	2200      	movs	r2, #0
 80006ee:	e9c5 3200 	strd	r3, r2, [r5]
 80006f2:	e8bd 87f0 	ldmia.w	sp!, {r4, r5, r6, r7, r8, r9, sl, pc}
 80006f6:	428b      	cmp	r3, r1
 80006f8:	d905      	bls.n	8000706 <__udivmoddi4+0xb6>
 80006fa:	b10d      	cbz	r5, 8000700 <__udivmoddi4+0xb0>
 80006fc:	e9c5 0100 	strd	r0, r1, [r5]
 8000700:	2100      	movs	r1, #0
 8000702:	4608      	mov	r0, r1
 8000704:	e7f5      	b.n	80006f2 <__udivmoddi4+0xa2>
 8000706:	fab3 f183 	clz	r1, r3
 800070a:	2900      	cmp	r1, #0
 800070c:	d146      	bne.n	800079c <__udivmoddi4+0x14c>
 800070e:	4573      	cmp	r3, lr
 8000710:	d302      	bcc.n	8000718 <__udivmoddi4+0xc8>
 8000712:	4282      	cmp	r2, r0
 8000714:	f200 8105 	bhi.w	8000922 <__udivmoddi4+0x2d2>
 8000718:	1a84      	subs	r4, r0, r2
 800071a:	eb6e 0203 	sbc.w	r2, lr, r3
 800071e:	2001      	movs	r0, #1
 8000720:	4690      	mov	r8, r2
 8000722:	2d00      	cmp	r5, #0
 8000724:	d0e5      	beq.n	80006f2 <__udivmoddi4+0xa2>
 8000726:	e9c5 4800 	strd	r4, r8, [r5]
 800072a:	e7e2      	b.n	80006f2 <__udivmoddi4+0xa2>
 800072c:	2a00      	cmp	r2, #0
 800072e:	f000 8090 	beq.w	8000852 <__udivmoddi4+0x202>
 8000732:	fab2 f682 	clz	r6, r2
 8000736:	2e00      	cmp	r6, #0
 8000738:	f040 80a4 	bne.w	8000884 <__udivmoddi4+0x234>
 800073c:	1a8a      	subs	r2, r1, r2
 800073e:	0c03      	lsrs	r3, r0, #16
 8000740:	ea4f 4e17 	mov.w	lr, r7, lsr #16
 8000744:	b280      	uxth	r0, r0
 8000746:	b2bc      	uxth	r4, r7
 8000748:	2101      	movs	r1, #1
 800074a:	fbb2 fcfe 	udiv	ip, r2, lr
 800074e:	fb0e 221c 	mls	r2, lr, ip, r2
 8000752:	ea43 4302 	orr.w	r3, r3, r2, lsl #16
 8000756:	fb04 f20c 	mul.w	r2, r4, ip
 800075a:	429a      	cmp	r2, r3
 800075c:	d907      	bls.n	800076e <__udivmoddi4+0x11e>
 800075e:	18fb      	adds	r3, r7, r3
 8000760:	f10c 38ff 	add.w	r8, ip, #4294967295	@ 0xffffffff
 8000764:	d202      	bcs.n	800076c <__udivmoddi4+0x11c>
 8000766:	429a      	cmp	r2, r3
 8000768:	f200 80e0 	bhi.w	800092c <__udivmoddi4+0x2dc>
 800076c:	46c4      	mov	ip, r8
 800076e:	1a9b      	subs	r3, r3, r2
 8000770:	fbb3 f2fe 	udiv	r2, r3, lr
 8000774:	fb0e 3312 	mls	r3, lr, r2, r3
 8000778:	ea40 4303 	orr.w	r3, r0, r3, lsl #16
 800077c:	fb02 f404 	mul.w	r4, r2, r4
 8000780:	429c      	cmp	r4, r3
 8000782:	d907      	bls.n	8000794 <__udivmoddi4+0x144>
 8000784:	18fb      	adds	r3, r7, r3
 8000786:	f102 30ff 	add.w	r0, r2, #4294967295	@ 0xffffffff
 800078a:	d202      	bcs.n	8000792 <__udivmoddi4+0x142>
 800078c:	429c      	cmp	r4, r3
 800078e:	f200 80ca 	bhi.w	8000926 <__udivmoddi4+0x2d6>
 8000792:	4602      	mov	r2, r0
 8000794:	1b1b      	subs	r3, r3, r4
 8000796:	ea42 400c 	orr.w	r0, r2, ip, lsl #16
 800079a:	e7a5      	b.n	80006e8 <__udivmoddi4+0x98>
 800079c:	f1c1 0620 	rsb	r6, r1, #32
 80007a0:	408b      	lsls	r3, r1
 80007a2:	fa22 f706 	lsr.w	r7, r2, r6
 80007a6:	431f      	orrs	r7, r3
 80007a8:	fa0e f401 	lsl.w	r4, lr, r1
 80007ac:	fa20 f306 	lsr.w	r3, r0, r6
 80007b0:	fa2e fe06 	lsr.w	lr, lr, r6
 80007b4:	ea4f 4917 	mov.w	r9, r7, lsr #16
 80007b8:	4323      	orrs	r3, r4
 80007ba:	fa00 f801 	lsl.w	r8, r0, r1
 80007be:	fa1f fc87 	uxth.w	ip, r7
 80007c2:	fbbe f0f9 	udiv	r0, lr, r9
 80007c6:	0c1c      	lsrs	r4, r3, #16
 80007c8:	fb09 ee10 	mls	lr, r9, r0, lr
 80007cc:	ea44 440e 	orr.w	r4, r4, lr, lsl #16
 80007d0:	fb00 fe0c 	mul.w	lr, r0, ip
 80007d4:	45a6      	cmp	lr, r4
 80007d6:	fa02 f201 	lsl.w	r2, r2, r1
 80007da:	d909      	bls.n	80007f0 <__udivmoddi4+0x1a0>
 80007dc:	193c      	adds	r4, r7, r4
 80007de:	f100 3aff 	add.w	sl, r0, #4294967295	@ 0xffffffff
 80007e2:	f080 809c 	bcs.w	800091e <__udivmoddi4+0x2ce>
 80007e6:	45a6      	cmp	lr, r4
 80007e8:	f240 8099 	bls.w	800091e <__udivmoddi4+0x2ce>
 80007ec:	3802      	subs	r0, #2
 80007ee:	443c      	add	r4, r7
 80007f0:	eba4 040e 	sub.w	r4, r4, lr
 80007f4:	fa1f fe83 	uxth.w	lr, r3
 80007f8:	fbb4 f3f9 	udiv	r3, r4, r9
 80007fc:	fb09 4413 	mls	r4, r9, r3, r4
 8000800:	ea4e 4404 	orr.w	r4, lr, r4, lsl #16
 8000804:	fb03 fc0c 	mul.w	ip, r3, ip
 8000808:	45a4      	cmp	ip, r4
 800080a:	d908      	bls.n	800081e <__udivmoddi4+0x1ce>
 800080c:	193c      	adds	r4, r7, r4
 800080e:	f103 3eff 	add.w	lr, r3, #4294967295	@ 0xffffffff
 8000812:	f080 8082 	bcs.w	800091a <__udivmoddi4+0x2ca>
 8000816:	45a4      	cmp	ip, r4
 8000818:	d97f      	bls.n	800091a <__udivmoddi4+0x2ca>
 800081a:	3b02      	subs	r3, #2
 800081c:	443c      	add	r4, r7
 800081e:	ea43 4000 	orr.w	r0, r3, r0, lsl #16
 8000822:	eba4 040c 	sub.w	r4, r4, ip
 8000826:	fba0 ec02 	umull	lr, ip, r0, r2
 800082a:	4564      	cmp	r4, ip
 800082c:	4673      	mov	r3, lr
 800082e:	46e1      	mov	r9, ip
 8000830:	d362      	bcc.n	80008f8 <__udivmoddi4+0x2a8>
 8000832:	d05f      	beq.n	80008f4 <__udivmoddi4+0x2a4>
 8000834:	b15d      	cbz	r5, 800084e <__udivmoddi4+0x1fe>
 8000836:	ebb8 0203 	subs.w	r2, r8, r3
 800083a:	eb64 0409 	sbc.w	r4, r4, r9
 800083e:	fa04 f606 	lsl.w	r6, r4, r6
 8000842:	fa22 f301 	lsr.w	r3, r2, r1
 8000846:	431e      	orrs	r6, r3
 8000848:	40cc      	lsrs	r4, r1
 800084a:	e9c5 6400 	strd	r6, r4, [r5]
 800084e:	2100      	movs	r1, #0
 8000850:	e74f      	b.n	80006f2 <__udivmoddi4+0xa2>
 8000852:	fbb1 fcf2 	udiv	ip, r1, r2
 8000856:	0c01      	lsrs	r1, r0, #16
 8000858:	ea41 410e 	orr.w	r1, r1, lr, lsl #16
 800085c:	b280      	uxth	r0, r0
 800085e:	ea40 4201 	orr.w	r2, r0, r1, lsl #16
 8000862:	463b      	mov	r3, r7
 8000864:	4638      	mov	r0, r7
 8000866:	463c      	mov	r4, r7
 8000868:	46b8      	mov	r8, r7
 800086a:	46be      	mov	lr, r7
 800086c:	2620      	movs	r6, #32
 800086e:	fbb1 f1f7 	udiv	r1, r1, r7
 8000872:	eba2 0208 	sub.w	r2, r2, r8
 8000876:	ea41 410c 	orr.w	r1, r1, ip, lsl #16
 800087a:	e766      	b.n	800074a <__udivmoddi4+0xfa>
 800087c:	4601      	mov	r1, r0
 800087e:	e718      	b.n	80006b2 <__udivmoddi4+0x62>
 8000880:	4610      	mov	r0, r2
 8000882:	e72c      	b.n	80006de <__udivmoddi4+0x8e>
 8000884:	f1c6 0220 	rsb	r2, r6, #32
 8000888:	fa2e f302 	lsr.w	r3, lr, r2
 800088c:	40b7      	lsls	r7, r6
 800088e:	40b1      	lsls	r1, r6
 8000890:	fa20 f202 	lsr.w	r2, r0, r2
 8000894:	ea4f 4e17 	mov.w	lr, r7, lsr #16
 8000898:	430a      	orrs	r2, r1
 800089a:	fbb3 f8fe 	udiv	r8, r3, lr
 800089e:	b2bc      	uxth	r4, r7
 80008a0:	fb0e 3318 	mls	r3, lr, r8, r3
 80008a4:	0c11      	lsrs	r1, r2, #16
 80008a6:	ea41 4103 	orr.w	r1, r1, r3, lsl #16
 80008aa:	fb08 f904 	mul.w	r9, r8, r4
 80008ae:	40b0      	lsls	r0, r6
 80008b0:	4589      	cmp	r9, r1
 80008b2:	ea4f 4310 	mov.w	r3, r0, lsr #16
 80008b6:	b280      	uxth	r0, r0
 80008b8:	d93e      	bls.n	8000938 <__udivmoddi4+0x2e8>
 80008ba:	1879      	adds	r1, r7, r1
 80008bc:	f108 3cff 	add.w	ip, r8, #4294967295	@ 0xffffffff
 80008c0:	d201      	bcs.n	80008c6 <__udivmoddi4+0x276>
 80008c2:	4589      	cmp	r9, r1
 80008c4:	d81f      	bhi.n	8000906 <__udivmoddi4+0x2b6>
 80008c6:	eba1 0109 	sub.w	r1, r1, r9
 80008ca:	fbb1 f9fe 	udiv	r9, r1, lr
 80008ce:	fb09 f804 	mul.w	r8, r9, r4
 80008d2:	fb0e 1119 	mls	r1, lr, r9, r1
 80008d6:	b292      	uxth	r2, r2
 80008d8:	ea42 4201 	orr.w	r2, r2, r1, lsl #16
 80008dc:	4542      	cmp	r2, r8
 80008de:	d229      	bcs.n	8000934 <__udivmoddi4+0x2e4>
 80008e0:	18ba      	adds	r2, r7, r2
 80008e2:	f109 31ff 	add.w	r1, r9, #4294967295	@ 0xffffffff
 80008e6:	d2c4      	bcs.n	8000872 <__udivmoddi4+0x222>
 80008e8:	4542      	cmp	r2, r8
 80008ea:	d2c2      	bcs.n	8000872 <__udivmoddi4+0x222>
 80008ec:	f1a9 0102 	sub.w	r1, r9, #2
 80008f0:	443a      	add	r2, r7
 80008f2:	e7be      	b.n	8000872 <__udivmoddi4+0x222>
 80008f4:	45f0      	cmp	r8, lr
 80008f6:	d29d      	bcs.n	8000834 <__udivmoddi4+0x1e4>
 80008f8:	ebbe 0302 	subs.w	r3, lr, r2
 80008fc:	eb6c 0c07 	sbc.w	ip, ip, r7
 8000900:	3801      	subs	r0, #1
 8000902:	46e1      	mov	r9, ip
 8000904:	e796      	b.n	8000834 <__udivmoddi4+0x1e4>
 8000906:	eba7 0909 	sub.w	r9, r7, r9
 800090a:	4449      	add	r1, r9
 800090c:	f1a8 0c02 	sub.w	ip, r8, #2
 8000910:	fbb1 f9fe 	udiv	r9, r1, lr
 8000914:	fb09 f804 	mul.w	r8, r9, r4
 8000918:	e7db      	b.n	80008d2 <__udivmoddi4+0x282>
 800091a:	4673      	mov	r3, lr
 800091c:	e77f      	b.n	800081e <__udivmoddi4+0x1ce>
 800091e:	4650      	mov	r0, sl
 8000920:	e766      	b.n	80007f0 <__udivmoddi4+0x1a0>
 8000922:	4608      	mov	r0, r1
 8000924:	e6fd      	b.n	8000722 <__udivmoddi4+0xd2>
 8000926:	443b      	add	r3, r7
 8000928:	3a02      	subs	r2, #2
 800092a:	e733      	b.n	8000794 <__udivmoddi4+0x144>
 800092c:	f1ac 0c02 	sub.w	ip, ip, #2
 8000930:	443b      	add	r3, r7
 8000932:	e71c      	b.n	800076e <__udivmoddi4+0x11e>
 8000934:	4649      	mov	r1, r9
 8000936:	e79c      	b.n	8000872 <__udivmoddi4+0x222>
 8000938:	eba1 0109 	sub.w	r1, r1, r9
 800093c:	46c4      	mov	ip, r8
 800093e:	fbb1 f9fe 	udiv	r9, r1, lr
 8000942:	fb09 f804 	mul.w	r8, r9, r4
 8000946:	e7c4      	b.n	80008d2 <__udivmoddi4+0x282>

08000948 <__aeabi_idiv0>:
 8000948:	4770      	bx	lr
 800094a:	bf00      	nop

0800094c <MX_GPIO_Init>:
        * Output
        * EVENT_OUT
        * EXTI
*/
void MX_GPIO_Init(void)
{
 800094c:	b580      	push	{r7, lr}
 800094e:	b088      	sub	sp, #32
 8000950:	af00      	add	r7, sp, #0

  GPIO_InitTypeDef GPIO_InitStruct = {0};
 8000952:	f107 030c 	add.w	r3, r7, #12
 8000956:	2200      	movs	r2, #0
 8000958:	601a      	str	r2, [r3, #0]
 800095a:	605a      	str	r2, [r3, #4]
 800095c:	609a      	str	r2, [r3, #8]
 800095e:	60da      	str	r2, [r3, #12]
 8000960:	611a      	str	r2, [r3, #16]

  /* GPIO Ports Clock Enable */
  __HAL_RCC_GPIOH_CLK_ENABLE();
 8000962:	2300      	movs	r3, #0
 8000964:	60bb      	str	r3, [r7, #8]
 8000966:	4b2a      	ldr	r3, [pc, #168]	@ (8000a10 <MX_GPIO_Init+0xc4>)
 8000968:	6b1b      	ldr	r3, [r3, #48]	@ 0x30
 800096a:	4a29      	ldr	r2, [pc, #164]	@ (8000a10 <MX_GPIO_Init+0xc4>)
 800096c:	f043 0380 	orr.w	r3, r3, #128	@ 0x80
 8000970:	6313      	str	r3, [r2, #48]	@ 0x30
 8000972:	4b27      	ldr	r3, [pc, #156]	@ (8000a10 <MX_GPIO_Init+0xc4>)
 8000974:	6b1b      	ldr	r3, [r3, #48]	@ 0x30
 8000976:	f003 0380 	and.w	r3, r3, #128	@ 0x80
 800097a:	60bb      	str	r3, [r7, #8]
 800097c:	68bb      	ldr	r3, [r7, #8]
  __HAL_RCC_GPIOA_CLK_ENABLE();
 800097e:	2300      	movs	r3, #0
 8000980:	607b      	str	r3, [r7, #4]
 8000982:	4b23      	ldr	r3, [pc, #140]	@ (8000a10 <MX_GPIO_Init+0xc4>)
 8000984:	6b1b      	ldr	r3, [r3, #48]	@ 0x30
 8000986:	4a22      	ldr	r2, [pc, #136]	@ (8000a10 <MX_GPIO_Init+0xc4>)
 8000988:	f043 0301 	orr.w	r3, r3, #1
 800098c:	6313      	str	r3, [r2, #48]	@ 0x30
 800098e:	4b20      	ldr	r3, [pc, #128]	@ (8000a10 <MX_GPIO_Init+0xc4>)
 8000990:	6b1b      	ldr	r3, [r3, #48]	@ 0x30
 8000992:	f003 0301 	and.w	r3, r3, #1
 8000996:	607b      	str	r3, [r7, #4]
 8000998:	687b      	ldr	r3, [r7, #4]
  __HAL_RCC_GPIOC_CLK_ENABLE();
 800099a:	2300      	movs	r3, #0
 800099c:	603b      	str	r3, [r7, #0]
 800099e:	4b1c      	ldr	r3, [pc, #112]	@ (8000a10 <MX_GPIO_Init+0xc4>)
 80009a0:	6b1b      	ldr	r3, [r3, #48]	@ 0x30
 80009a2:	4a1b      	ldr	r2, [pc, #108]	@ (8000a10 <MX_GPIO_Init+0xc4>)
 80009a4:	f043 0304 	orr.w	r3, r3, #4
 80009a8:	6313      	str	r3, [r2, #48]	@ 0x30
 80009aa:	4b19      	ldr	r3, [pc, #100]	@ (8000a10 <MX_GPIO_Init+0xc4>)
 80009ac:	6b1b      	ldr	r3, [r3, #48]	@ 0x30
 80009ae:	f003 0304 	and.w	r3, r3, #4
 80009b2:	603b      	str	r3, [r7, #0]
 80009b4:	683b      	ldr	r3, [r7, #0]

  /*Configure GPIO pin Output Level */
  HAL_GPIO_WritePin(GPIOA, GPIO_PIN_4|GPIO_PIN_15, GPIO_PIN_RESET);
 80009b6:	2200      	movs	r2, #0
 80009b8:	f248 0110 	movw	r1, #32784	@ 0x8010
 80009bc:	4815      	ldr	r0, [pc, #84]	@ (8000a14 <MX_GPIO_Init+0xc8>)
 80009be:	f000 ff3f 	bl	8001840 <HAL_GPIO_WritePin>

  /*Configure GPIO pin Output Level */
  HAL_GPIO_WritePin(GPIOC, GPIO_PIN_5, GPIO_PIN_RESET);
 80009c2:	2200      	movs	r2, #0
 80009c4:	2120      	movs	r1, #32
 80009c6:	4814      	ldr	r0, [pc, #80]	@ (8000a18 <MX_GPIO_Init+0xcc>)
 80009c8:	f000 ff3a 	bl	8001840 <HAL_GPIO_WritePin>

  /*Configure GPIO pins : PA4 PA15 */
  GPIO_InitStruct.Pin = GPIO_PIN_4|GPIO_PIN_15;
 80009cc:	f248 0310 	movw	r3, #32784	@ 0x8010
 80009d0:	60fb      	str	r3, [r7, #12]
  GPIO_InitStruct.Mode = GPIO_MODE_OUTPUT_PP;
 80009d2:	2301      	movs	r3, #1
 80009d4:	613b      	str	r3, [r7, #16]
  GPIO_InitStruct.Pull = GPIO_NOPULL;
 80009d6:	2300      	movs	r3, #0
 80009d8:	617b      	str	r3, [r7, #20]
  GPIO_InitStruct.Speed = GPIO_SPEED_FREQ_LOW;
 80009da:	2300      	movs	r3, #0
 80009dc:	61bb      	str	r3, [r7, #24]
  HAL_GPIO_Init(GPIOA, &GPIO_InitStruct);
 80009de:	f107 030c 	add.w	r3, r7, #12
 80009e2:	4619      	mov	r1, r3
 80009e4:	480b      	ldr	r0, [pc, #44]	@ (8000a14 <MX_GPIO_Init+0xc8>)
 80009e6:	f000 fd97 	bl	8001518 <HAL_GPIO_Init>

  /*Configure GPIO pin : PC5 */
  GPIO_InitStruct.Pin = GPIO_PIN_5;
 80009ea:	2320      	movs	r3, #32
 80009ec:	60fb      	str	r3, [r7, #12]
  GPIO_InitStruct.Mode = GPIO_MODE_OUTPUT_PP;
 80009ee:	2301      	movs	r3, #1
 80009f0:	613b      	str	r3, [r7, #16]
  GPIO_InitStruct.Pull = GPIO_NOPULL;
 80009f2:	2300      	movs	r3, #0
 80009f4:	617b      	str	r3, [r7, #20]
  GPIO_InitStruct.Speed = GPIO_SPEED_FREQ_LOW;
 80009f6:	2300      	movs	r3, #0
 80009f8:	61bb      	str	r3, [r7, #24]
  HAL_GPIO_Init(GPIOC, &GPIO_InitStruct);
 80009fa:	f107 030c 	add.w	r3, r7, #12
 80009fe:	4619      	mov	r1, r3
 8000a00:	4805      	ldr	r0, [pc, #20]	@ (8000a18 <MX_GPIO_Init+0xcc>)
 8000a02:	f000 fd89 	bl	8001518 <HAL_GPIO_Init>

}
 8000a06:	bf00      	nop
 8000a08:	3720      	adds	r7, #32
 8000a0a:	46bd      	mov	sp, r7
 8000a0c:	bd80      	pop	{r7, pc}
 8000a0e:	bf00      	nop
 8000a10:	40023800 	.word	0x40023800
 8000a14:	40020000 	.word	0x40020000
 8000a18:	40020800 	.word	0x40020800

08000a1c <main>:
/**
  * @brief  The application entry point.
  * @retval int
  */
int main(void)
{
 8000a1c:	b580      	push	{r7, lr}
 8000a1e:	af00      	add	r7, sp, #0
  /* USER CODE END 1 */

  /* MCU Configuration--------------------------------------------------------*/

  /* Reset of all peripherals, Initializes the Flash interface and the Systick. */
  HAL_Init();
 8000a20:	f000 fbd2 	bl	80011c8 <HAL_Init>
  /* USER CODE BEGIN Init */

  /* USER CODE END Init */

  /* Configure the system clock */
  SystemClock_Config();
 8000a24:	f000 f830 	bl	8000a88 <SystemClock_Config>
  /* USER CODE BEGIN SysInit */

  /* USER CODE END SysInit */

  /* Initialize all configured peripherals */
  MX_GPIO_Init();
 8000a28:	f7ff ff90 	bl	800094c <MX_GPIO_Init>
  MX_TIM1_Init();
 8000a2c:	f000 fa4a 	bl	8000ec4 <MX_TIM1_Init>
  MX_SPI1_Init();
 8000a30:	f000 f8a4 	bl	8000b7c <MX_SPI1_Init>
  MX_SPI3_Init();
 8000a34:	f000 f8da 	bl	8000bec <MX_SPI3_Init>
  MX_USART2_UART_Init();
 8000a38:	f000 fb2a 	bl	8001090 <MX_USART2_UART_Init>
  /* USER CODE BEGIN 2 */
  HAL_TIM_PWM_Start(&htim1, TIM_CHANNEL_1);
 8000a3c:	2100      	movs	r1, #0
 8000a3e:	4810      	ldr	r0, [pc, #64]	@ (8000a80 <main+0x64>)
 8000a40:	f001 fe9a 	bl	8002778 <HAL_TIM_PWM_Start>
  __HAL_TIM_SET_COMPARE(&htim1, TIM_CHANNEL_1, htim1.Init.Period/2);
 8000a44:	4b0e      	ldr	r3, [pc, #56]	@ (8000a80 <main+0x64>)
 8000a46:	68da      	ldr	r2, [r3, #12]
 8000a48:	4b0d      	ldr	r3, [pc, #52]	@ (8000a80 <main+0x64>)
 8000a4a:	681b      	ldr	r3, [r3, #0]
 8000a4c:	0852      	lsrs	r2, r2, #1
 8000a4e:	635a      	str	r2, [r3, #52]	@ 0x34
  HAL_TIM_Base_Start_IT(&htim1);
 8000a50:	480b      	ldr	r0, [pc, #44]	@ (8000a80 <main+0x64>)
 8000a52:	f001 fdd1 	bl	80025f8 <HAL_TIM_Base_Start_IT>
  while (1)
  {
    /* USER CODE END WHILE */

    /* USER CODE BEGIN 3 */
	  HAL_GPIO_WritePin(GPIOC, GPIO_PIN_5, GPIO_PIN_SET);
 8000a56:	2201      	movs	r2, #1
 8000a58:	2120      	movs	r1, #32
 8000a5a:	480a      	ldr	r0, [pc, #40]	@ (8000a84 <main+0x68>)
 8000a5c:	f000 fef0 	bl	8001840 <HAL_GPIO_WritePin>
	  HAL_Delay(1000); // wait for 1 sec
 8000a60:	f44f 707a 	mov.w	r0, #1000	@ 0x3e8
 8000a64:	f000 fc22 	bl	80012ac <HAL_Delay>
//	  printf("5 \n\r");
	  // LED off
	  HAL_GPIO_WritePin(GPIOC, GPIO_PIN_5, GPIO_PIN_RESET);
 8000a68:	2200      	movs	r2, #0
 8000a6a:	2120      	movs	r1, #32
 8000a6c:	4805      	ldr	r0, [pc, #20]	@ (8000a84 <main+0x68>)
 8000a6e:	f000 fee7 	bl	8001840 <HAL_GPIO_WritePin>
	  HAL_Delay(1000); // wait for 1 se
 8000a72:	f44f 707a 	mov.w	r0, #1000	@ 0x3e8
 8000a76:	f000 fc19 	bl	80012ac <HAL_Delay>
	  HAL_GPIO_WritePin(GPIOC, GPIO_PIN_5, GPIO_PIN_SET);
 8000a7a:	bf00      	nop
 8000a7c:	e7eb      	b.n	8000a56 <main+0x3a>
 8000a7e:	bf00      	nop
 8000a80:	200000dc 	.word	0x200000dc
 8000a84:	40020800 	.word	0x40020800

08000a88 <SystemClock_Config>:
/**
  * @brief System Clock Configuration
  * @retval None
  */
void SystemClock_Config(void)
{
 8000a88:	b580      	push	{r7, lr}
 8000a8a:	b094      	sub	sp, #80	@ 0x50
 8000a8c:	af00      	add	r7, sp, #0
  RCC_OscInitTypeDef RCC_OscInitStruct = {0};
 8000a8e:	f107 031c 	add.w	r3, r7, #28
 8000a92:	2234      	movs	r2, #52	@ 0x34
 8000a94:	2100      	movs	r1, #0
 8000a96:	4618      	mov	r0, r3
 8000a98:	f003 f884 	bl	8003ba4 <memset>
  RCC_ClkInitTypeDef RCC_ClkInitStruct = {0};
 8000a9c:	f107 0308 	add.w	r3, r7, #8
 8000aa0:	2200      	movs	r2, #0
 8000aa2:	601a      	str	r2, [r3, #0]
 8000aa4:	605a      	str	r2, [r3, #4]
 8000aa6:	609a      	str	r2, [r3, #8]
 8000aa8:	60da      	str	r2, [r3, #12]
 8000aaa:	611a      	str	r2, [r3, #16]

  /** Configure the main internal regulator output voltage
  */
  __HAL_RCC_PWR_CLK_ENABLE();
 8000aac:	2300      	movs	r3, #0
 8000aae:	607b      	str	r3, [r7, #4]
 8000ab0:	4b2d      	ldr	r3, [pc, #180]	@ (8000b68 <SystemClock_Config+0xe0>)
 8000ab2:	6c1b      	ldr	r3, [r3, #64]	@ 0x40
 8000ab4:	4a2c      	ldr	r2, [pc, #176]	@ (8000b68 <SystemClock_Config+0xe0>)
 8000ab6:	f043 5380 	orr.w	r3, r3, #268435456	@ 0x10000000
 8000aba:	6413      	str	r3, [r2, #64]	@ 0x40
 8000abc:	4b2a      	ldr	r3, [pc, #168]	@ (8000b68 <SystemClock_Config+0xe0>)
 8000abe:	6c1b      	ldr	r3, [r3, #64]	@ 0x40
 8000ac0:	f003 5380 	and.w	r3, r3, #268435456	@ 0x10000000
 8000ac4:	607b      	str	r3, [r7, #4]
 8000ac6:	687b      	ldr	r3, [r7, #4]
  __HAL_PWR_VOLTAGESCALING_CONFIG(PWR_REGULATOR_VOLTAGE_SCALE1);
 8000ac8:	2300      	movs	r3, #0
 8000aca:	603b      	str	r3, [r7, #0]
 8000acc:	4b27      	ldr	r3, [pc, #156]	@ (8000b6c <SystemClock_Config+0xe4>)
 8000ace:	681b      	ldr	r3, [r3, #0]
 8000ad0:	4a26      	ldr	r2, [pc, #152]	@ (8000b6c <SystemClock_Config+0xe4>)
 8000ad2:	f443 4340 	orr.w	r3, r3, #49152	@ 0xc000
 8000ad6:	6013      	str	r3, [r2, #0]
 8000ad8:	4b24      	ldr	r3, [pc, #144]	@ (8000b6c <SystemClock_Config+0xe4>)
 8000ada:	681b      	ldr	r3, [r3, #0]
 8000adc:	f403 4340 	and.w	r3, r3, #49152	@ 0xc000
 8000ae0:	603b      	str	r3, [r7, #0]
 8000ae2:	683b      	ldr	r3, [r7, #0]

  /** Initializes the RCC Oscillators according to the specified parameters
  * in the RCC_OscInitTypeDef structure.
  */
  RCC_OscInitStruct.OscillatorType = RCC_OSCILLATORTYPE_HSE;
 8000ae4:	2301      	movs	r3, #1
 8000ae6:	61fb      	str	r3, [r7, #28]
  RCC_OscInitStruct.HSEState = RCC_HSE_ON;
 8000ae8:	f44f 3380 	mov.w	r3, #65536	@ 0x10000
 8000aec:	623b      	str	r3, [r7, #32]
  RCC_OscInitStruct.PLL.PLLState = RCC_PLL_ON;
 8000aee:	2302      	movs	r3, #2
 8000af0:	637b      	str	r3, [r7, #52]	@ 0x34
  RCC_OscInitStruct.PLL.PLLSource = RCC_PLLSOURCE_HSE;
 8000af2:	f44f 0380 	mov.w	r3, #4194304	@ 0x400000
 8000af6:	63bb      	str	r3, [r7, #56]	@ 0x38
  RCC_OscInitStruct.PLL.PLLM = 8;
 8000af8:	2308      	movs	r3, #8
 8000afa:	63fb      	str	r3, [r7, #60]	@ 0x3c
  RCC_OscInitStruct.PLL.PLLN = 360;
 8000afc:	f44f 73b4 	mov.w	r3, #360	@ 0x168
 8000b00:	643b      	str	r3, [r7, #64]	@ 0x40
  RCC_OscInitStruct.PLL.PLLP = RCC_PLLP_DIV2;
 8000b02:	2302      	movs	r3, #2
 8000b04:	647b      	str	r3, [r7, #68]	@ 0x44
  RCC_OscInitStruct.PLL.PLLQ = 2;
 8000b06:	2302      	movs	r3, #2
 8000b08:	64bb      	str	r3, [r7, #72]	@ 0x48
  RCC_OscInitStruct.PLL.PLLR = 2;
 8000b0a:	2302      	movs	r3, #2
 8000b0c:	64fb      	str	r3, [r7, #76]	@ 0x4c
  if (HAL_RCC_OscConfig(&RCC_OscInitStruct) != HAL_OK)
 8000b0e:	f107 031c 	add.w	r3, r7, #28
 8000b12:	4618      	mov	r0, r3
 8000b14:	f001 fa48 	bl	8001fa8 <HAL_RCC_OscConfig>
 8000b18:	4603      	mov	r3, r0
 8000b1a:	2b00      	cmp	r3, #0
 8000b1c:	d001      	beq.n	8000b22 <SystemClock_Config+0x9a>
  {
    Error_Handler();
 8000b1e:	f000 f827 	bl	8000b70 <Error_Handler>
  }

  /** Activate the Over-Drive mode
  */
  if (HAL_PWREx_EnableOverDrive() != HAL_OK)
 8000b22:	f000 fea7 	bl	8001874 <HAL_PWREx_EnableOverDrive>
 8000b26:	4603      	mov	r3, r0
 8000b28:	2b00      	cmp	r3, #0
 8000b2a:	d001      	beq.n	8000b30 <SystemClock_Config+0xa8>
  {
    Error_Handler();
 8000b2c:	f000 f820 	bl	8000b70 <Error_Handler>
  }

  /** Initializes the CPU, AHB and APB buses clocks
  */
  RCC_ClkInitStruct.ClockType = RCC_CLOCKTYPE_HCLK|RCC_CLOCKTYPE_SYSCLK
 8000b30:	230f      	movs	r3, #15
 8000b32:	60bb      	str	r3, [r7, #8]
                              |RCC_CLOCKTYPE_PCLK1|RCC_CLOCKTYPE_PCLK2;
  RCC_ClkInitStruct.SYSCLKSource = RCC_SYSCLKSOURCE_PLLCLK;
 8000b34:	2302      	movs	r3, #2
 8000b36:	60fb      	str	r3, [r7, #12]
  RCC_ClkInitStruct.AHBCLKDivider = RCC_SYSCLK_DIV1;
 8000b38:	2300      	movs	r3, #0
 8000b3a:	613b      	str	r3, [r7, #16]
  RCC_ClkInitStruct.APB1CLKDivider = RCC_HCLK_DIV4;
 8000b3c:	f44f 53a0 	mov.w	r3, #5120	@ 0x1400
 8000b40:	617b      	str	r3, [r7, #20]
  RCC_ClkInitStruct.APB2CLKDivider = RCC_HCLK_DIV2;
 8000b42:	f44f 5380 	mov.w	r3, #4096	@ 0x1000
 8000b46:	61bb      	str	r3, [r7, #24]

  if (HAL_RCC_ClockConfig(&RCC_ClkInitStruct, FLASH_LATENCY_5) != HAL_OK)
 8000b48:	f107 0308 	add.w	r3, r7, #8
 8000b4c:	2105      	movs	r1, #5
 8000b4e:	4618      	mov	r0, r3
 8000b50:	f000 fee0 	bl	8001914 <HAL_RCC_ClockConfig>
 8000b54:	4603      	mov	r3, r0
 8000b56:	2b00      	cmp	r3, #0
 8000b58:	d001      	beq.n	8000b5e <SystemClock_Config+0xd6>
  {
    Error_Handler();
 8000b5a:	f000 f809 	bl	8000b70 <Error_Handler>
  }
}
 8000b5e:	bf00      	nop
 8000b60:	3750      	adds	r7, #80	@ 0x50
 8000b62:	46bd      	mov	sp, r7
 8000b64:	bd80      	pop	{r7, pc}
 8000b66:	bf00      	nop
 8000b68:	40023800 	.word	0x40023800
 8000b6c:	40007000 	.word	0x40007000

08000b70 <Error_Handler>:
/**
  * @brief  This function is executed in case of error occurrence.
  * @retval None
  */
void Error_Handler(void)
{
 8000b70:	b480      	push	{r7}
 8000b72:	af00      	add	r7, sp, #0
  \details Disables IRQ interrupts by setting special-purpose register PRIMASK.
           Can only be executed in Privileged modes.
 */
__STATIC_FORCEINLINE void __disable_irq(void)
{
  __ASM volatile ("cpsid i" : : : "memory");
 8000b74:	b672      	cpsid	i
}
 8000b76:	bf00      	nop
  /* USER CODE BEGIN Error_Handler_Debug */
  /* User can add his own implementation to report the HAL error return state */
  __disable_irq();
  while (1)
 8000b78:	bf00      	nop
 8000b7a:	e7fd      	b.n	8000b78 <Error_Handler+0x8>

08000b7c <MX_SPI1_Init>:
SPI_HandleTypeDef hspi1;
SPI_HandleTypeDef hspi3;

/* SPI1 init function */
void MX_SPI1_Init(void)
{
 8000b7c:	b580      	push	{r7, lr}
 8000b7e:	af00      	add	r7, sp, #0
  /* USER CODE END SPI1_Init 0 */

  /* USER CODE BEGIN SPI1_Init 1 */

  /* USER CODE END SPI1_Init 1 */
  hspi1.Instance = SPI1;
 8000b80:	4b18      	ldr	r3, [pc, #96]	@ (8000be4 <MX_SPI1_Init+0x68>)
 8000b82:	4a19      	ldr	r2, [pc, #100]	@ (8000be8 <MX_SPI1_Init+0x6c>)
 8000b84:	601a      	str	r2, [r3, #0]
  hspi1.Init.Mode = SPI_MODE_MASTER;
 8000b86:	4b17      	ldr	r3, [pc, #92]	@ (8000be4 <MX_SPI1_Init+0x68>)
 8000b88:	f44f 7282 	mov.w	r2, #260	@ 0x104
 8000b8c:	605a      	str	r2, [r3, #4]
  hspi1.Init.Direction = SPI_DIRECTION_2LINES;
 8000b8e:	4b15      	ldr	r3, [pc, #84]	@ (8000be4 <MX_SPI1_Init+0x68>)
 8000b90:	2200      	movs	r2, #0
 8000b92:	609a      	str	r2, [r3, #8]
  hspi1.Init.DataSize = SPI_DATASIZE_16BIT;
 8000b94:	4b13      	ldr	r3, [pc, #76]	@ (8000be4 <MX_SPI1_Init+0x68>)
 8000b96:	f44f 6200 	mov.w	r2, #2048	@ 0x800
 8000b9a:	60da      	str	r2, [r3, #12]
  hspi1.Init.CLKPolarity = SPI_POLARITY_LOW;
 8000b9c:	4b11      	ldr	r3, [pc, #68]	@ (8000be4 <MX_SPI1_Init+0x68>)
 8000b9e:	2200      	movs	r2, #0
 8000ba0:	611a      	str	r2, [r3, #16]
  hspi1.Init.CLKPhase = SPI_PHASE_1EDGE;
 8000ba2:	4b10      	ldr	r3, [pc, #64]	@ (8000be4 <MX_SPI1_Init+0x68>)
 8000ba4:	2200      	movs	r2, #0
 8000ba6:	615a      	str	r2, [r3, #20]
  hspi1.Init.NSS = SPI_NSS_SOFT;
 8000ba8:	4b0e      	ldr	r3, [pc, #56]	@ (8000be4 <MX_SPI1_Init+0x68>)
 8000baa:	f44f 7200 	mov.w	r2, #512	@ 0x200
 8000bae:	619a      	str	r2, [r3, #24]
  hspi1.Init.BaudRatePrescaler = SPI_BAUDRATEPRESCALER_2;
 8000bb0:	4b0c      	ldr	r3, [pc, #48]	@ (8000be4 <MX_SPI1_Init+0x68>)
 8000bb2:	2200      	movs	r2, #0
 8000bb4:	61da      	str	r2, [r3, #28]
  hspi1.Init.FirstBit = SPI_FIRSTBIT_MSB;
 8000bb6:	4b0b      	ldr	r3, [pc, #44]	@ (8000be4 <MX_SPI1_Init+0x68>)
 8000bb8:	2200      	movs	r2, #0
 8000bba:	621a      	str	r2, [r3, #32]
  hspi1.Init.TIMode = SPI_TIMODE_DISABLE;
 8000bbc:	4b09      	ldr	r3, [pc, #36]	@ (8000be4 <MX_SPI1_Init+0x68>)
 8000bbe:	2200      	movs	r2, #0
 8000bc0:	625a      	str	r2, [r3, #36]	@ 0x24
  hspi1.Init.CRCCalculation = SPI_CRCCALCULATION_DISABLE;
 8000bc2:	4b08      	ldr	r3, [pc, #32]	@ (8000be4 <MX_SPI1_Init+0x68>)
 8000bc4:	2200      	movs	r2, #0
 8000bc6:	629a      	str	r2, [r3, #40]	@ 0x28
  hspi1.Init.CRCPolynomial = 10;
 8000bc8:	4b06      	ldr	r3, [pc, #24]	@ (8000be4 <MX_SPI1_Init+0x68>)
 8000bca:	220a      	movs	r2, #10
 8000bcc:	62da      	str	r2, [r3, #44]	@ 0x2c
  if (HAL_SPI_Init(&hspi1) != HAL_OK)
 8000bce:	4805      	ldr	r0, [pc, #20]	@ (8000be4 <MX_SPI1_Init+0x68>)
 8000bd0:	f001 fc88 	bl	80024e4 <HAL_SPI_Init>
 8000bd4:	4603      	mov	r3, r0
 8000bd6:	2b00      	cmp	r3, #0
 8000bd8:	d001      	beq.n	8000bde <MX_SPI1_Init+0x62>
  {
    Error_Handler();
 8000bda:	f7ff ffc9 	bl	8000b70 <Error_Handler>
  }
  /* USER CODE BEGIN SPI1_Init 2 */

  /* USER CODE END SPI1_Init 2 */

}
 8000bde:	bf00      	nop
 8000be0:	bd80      	pop	{r7, pc}
 8000be2:	bf00      	nop
 8000be4:	20000028 	.word	0x20000028
 8000be8:	40013000 	.word	0x40013000

08000bec <MX_SPI3_Init>:
/* SPI3 init function */
void MX_SPI3_Init(void)
{
 8000bec:	b580      	push	{r7, lr}
 8000bee:	af00      	add	r7, sp, #0
  /* USER CODE END SPI3_Init 0 */

  /* USER CODE BEGIN SPI3_Init 1 */

  /* USER CODE END SPI3_Init 1 */
  hspi3.Instance = SPI3;
 8000bf0:	4b18      	ldr	r3, [pc, #96]	@ (8000c54 <MX_SPI3_Init+0x68>)
 8000bf2:	4a19      	ldr	r2, [pc, #100]	@ (8000c58 <MX_SPI3_Init+0x6c>)
 8000bf4:	601a      	str	r2, [r3, #0]
  hspi3.Init.Mode = SPI_MODE_MASTER;
 8000bf6:	4b17      	ldr	r3, [pc, #92]	@ (8000c54 <MX_SPI3_Init+0x68>)
 8000bf8:	f44f 7282 	mov.w	r2, #260	@ 0x104
 8000bfc:	605a      	str	r2, [r3, #4]
  hspi3.Init.Direction = SPI_DIRECTION_2LINES;
 8000bfe:	4b15      	ldr	r3, [pc, #84]	@ (8000c54 <MX_SPI3_Init+0x68>)
 8000c00:	2200      	movs	r2, #0
 8000c02:	609a      	str	r2, [r3, #8]
  hspi3.Init.DataSize = SPI_DATASIZE_16BIT;
 8000c04:	4b13      	ldr	r3, [pc, #76]	@ (8000c54 <MX_SPI3_Init+0x68>)
 8000c06:	f44f 6200 	mov.w	r2, #2048	@ 0x800
 8000c0a:	60da      	str	r2, [r3, #12]
  hspi3.Init.CLKPolarity = SPI_POLARITY_LOW;
 8000c0c:	4b11      	ldr	r3, [pc, #68]	@ (8000c54 <MX_SPI3_Init+0x68>)
 8000c0e:	2200      	movs	r2, #0
 8000c10:	611a      	str	r2, [r3, #16]
  hspi3.Init.CLKPhase = SPI_PHASE_2EDGE;
 8000c12:	4b10      	ldr	r3, [pc, #64]	@ (8000c54 <MX_SPI3_Init+0x68>)
 8000c14:	2201      	movs	r2, #1
 8000c16:	615a      	str	r2, [r3, #20]
  hspi3.Init.NSS = SPI_NSS_SOFT;
 8000c18:	4b0e      	ldr	r3, [pc, #56]	@ (8000c54 <MX_SPI3_Init+0x68>)
 8000c1a:	f44f 7200 	mov.w	r2, #512	@ 0x200
 8000c1e:	619a      	str	r2, [r3, #24]
  hspi3.Init.BaudRatePrescaler = SPI_BAUDRATEPRESCALER_32;
 8000c20:	4b0c      	ldr	r3, [pc, #48]	@ (8000c54 <MX_SPI3_Init+0x68>)
 8000c22:	2220      	movs	r2, #32
 8000c24:	61da      	str	r2, [r3, #28]
  hspi3.Init.FirstBit = SPI_FIRSTBIT_MSB;
 8000c26:	4b0b      	ldr	r3, [pc, #44]	@ (8000c54 <MX_SPI3_Init+0x68>)
 8000c28:	2200      	movs	r2, #0
 8000c2a:	621a      	str	r2, [r3, #32]
  hspi3.Init.TIMode = SPI_TIMODE_DISABLE;
 8000c2c:	4b09      	ldr	r3, [pc, #36]	@ (8000c54 <MX_SPI3_Init+0x68>)
 8000c2e:	2200      	movs	r2, #0
 8000c30:	625a      	str	r2, [r3, #36]	@ 0x24
  hspi3.Init.CRCCalculation = SPI_CRCCALCULATION_DISABLE;
 8000c32:	4b08      	ldr	r3, [pc, #32]	@ (8000c54 <MX_SPI3_Init+0x68>)
 8000c34:	2200      	movs	r2, #0
 8000c36:	629a      	str	r2, [r3, #40]	@ 0x28
  hspi3.Init.CRCPolynomial = 10;
 8000c38:	4b06      	ldr	r3, [pc, #24]	@ (8000c54 <MX_SPI3_Init+0x68>)
 8000c3a:	220a      	movs	r2, #10
 8000c3c:	62da      	str	r2, [r3, #44]	@ 0x2c
  if (HAL_SPI_Init(&hspi3) != HAL_OK)
 8000c3e:	4805      	ldr	r0, [pc, #20]	@ (8000c54 <MX_SPI3_Init+0x68>)
 8000c40:	f001 fc50 	bl	80024e4 <HAL_SPI_Init>
 8000c44:	4603      	mov	r3, r0
 8000c46:	2b00      	cmp	r3, #0
 8000c48:	d001      	beq.n	8000c4e <MX_SPI3_Init+0x62>
  {
    Error_Handler();
 8000c4a:	f7ff ff91 	bl	8000b70 <Error_Handler>
  }
  /* USER CODE BEGIN SPI3_Init 2 */

  /* USER CODE END SPI3_Init 2 */

}
 8000c4e:	bf00      	nop
 8000c50:	bd80      	pop	{r7, pc}
 8000c52:	bf00      	nop
 8000c54:	20000080 	.word	0x20000080
 8000c58:	40003c00 	.word	0x40003c00

08000c5c <HAL_SPI_MspInit>:

void HAL_SPI_MspInit(SPI_HandleTypeDef* spiHandle)
{
 8000c5c:	b580      	push	{r7, lr}
 8000c5e:	b08c      	sub	sp, #48	@ 0x30
 8000c60:	af00      	add	r7, sp, #0
 8000c62:	6078      	str	r0, [r7, #4]

  GPIO_InitTypeDef GPIO_InitStruct = {0};
 8000c64:	f107 031c 	add.w	r3, r7, #28
 8000c68:	2200      	movs	r2, #0
 8000c6a:	601a      	str	r2, [r3, #0]
 8000c6c:	605a      	str	r2, [r3, #4]
 8000c6e:	609a      	str	r2, [r3, #8]
 8000c70:	60da      	str	r2, [r3, #12]
 8000c72:	611a      	str	r2, [r3, #16]
  if(spiHandle->Instance==SPI1)
 8000c74:	687b      	ldr	r3, [r7, #4]
 8000c76:	681b      	ldr	r3, [r3, #0]
 8000c78:	4a32      	ldr	r2, [pc, #200]	@ (8000d44 <HAL_SPI_MspInit+0xe8>)
 8000c7a:	4293      	cmp	r3, r2
 8000c7c:	d12c      	bne.n	8000cd8 <HAL_SPI_MspInit+0x7c>
  {
  /* USER CODE BEGIN SPI1_MspInit 0 */

  /* USER CODE END SPI1_MspInit 0 */
    /* SPI1 clock enable */
    __HAL_RCC_SPI1_CLK_ENABLE();
 8000c7e:	2300      	movs	r3, #0
 8000c80:	61bb      	str	r3, [r7, #24]
 8000c82:	4b31      	ldr	r3, [pc, #196]	@ (8000d48 <HAL_SPI_MspInit+0xec>)
 8000c84:	6c5b      	ldr	r3, [r3, #68]	@ 0x44
 8000c86:	4a30      	ldr	r2, [pc, #192]	@ (8000d48 <HAL_SPI_MspInit+0xec>)
 8000c88:	f443 5380 	orr.w	r3, r3, #4096	@ 0x1000
 8000c8c:	6453      	str	r3, [r2, #68]	@ 0x44
 8000c8e:	4b2e      	ldr	r3, [pc, #184]	@ (8000d48 <HAL_SPI_MspInit+0xec>)
 8000c90:	6c5b      	ldr	r3, [r3, #68]	@ 0x44
 8000c92:	f403 5380 	and.w	r3, r3, #4096	@ 0x1000
 8000c96:	61bb      	str	r3, [r7, #24]
 8000c98:	69bb      	ldr	r3, [r7, #24]

    __HAL_RCC_GPIOA_CLK_ENABLE();
 8000c9a:	2300      	movs	r3, #0
 8000c9c:	617b      	str	r3, [r7, #20]
 8000c9e:	4b2a      	ldr	r3, [pc, #168]	@ (8000d48 <HAL_SPI_MspInit+0xec>)
 8000ca0:	6b1b      	ldr	r3, [r3, #48]	@ 0x30
 8000ca2:	4a29      	ldr	r2, [pc, #164]	@ (8000d48 <HAL_SPI_MspInit+0xec>)
 8000ca4:	f043 0301 	orr.w	r3, r3, #1
 8000ca8:	6313      	str	r3, [r2, #48]	@ 0x30
 8000caa:	4b27      	ldr	r3, [pc, #156]	@ (8000d48 <HAL_SPI_MspInit+0xec>)
 8000cac:	6b1b      	ldr	r3, [r3, #48]	@ 0x30
 8000cae:	f003 0301 	and.w	r3, r3, #1
 8000cb2:	617b      	str	r3, [r7, #20]
 8000cb4:	697b      	ldr	r3, [r7, #20]
    /**SPI1 GPIO Configuration
    PA5     ------> SPI1_SCK
    PA6     ------> SPI1_MISO
    PA7     ------> SPI1_MOSI
    */
    GPIO_InitStruct.Pin = GPIO_PIN_5|GPIO_PIN_6|GPIO_PIN_7;
 8000cb6:	23e0      	movs	r3, #224	@ 0xe0
 8000cb8:	61fb      	str	r3, [r7, #28]
    GPIO_InitStruct.Mode = GPIO_MODE_AF_PP;
 8000cba:	2302      	movs	r3, #2
 8000cbc:	623b      	str	r3, [r7, #32]
    GPIO_InitStruct.Pull = GPIO_NOPULL;
 8000cbe:	2300      	movs	r3, #0
 8000cc0:	627b      	str	r3, [r7, #36]	@ 0x24
    GPIO_InitStruct.Speed = GPIO_SPEED_FREQ_VERY_HIGH;
 8000cc2:	2303      	movs	r3, #3
 8000cc4:	62bb      	str	r3, [r7, #40]	@ 0x28
    GPIO_InitStruct.Alternate = GPIO_AF5_SPI1;
 8000cc6:	2305      	movs	r3, #5
 8000cc8:	62fb      	str	r3, [r7, #44]	@ 0x2c
    HAL_GPIO_Init(GPIOA, &GPIO_InitStruct);
 8000cca:	f107 031c 	add.w	r3, r7, #28
 8000cce:	4619      	mov	r1, r3
 8000cd0:	481e      	ldr	r0, [pc, #120]	@ (8000d4c <HAL_SPI_MspInit+0xf0>)
 8000cd2:	f000 fc21 	bl	8001518 <HAL_GPIO_Init>

  /* USER CODE BEGIN SPI3_MspInit 1 */

  /* USER CODE END SPI3_MspInit 1 */
  }
}
 8000cd6:	e031      	b.n	8000d3c <HAL_SPI_MspInit+0xe0>
  else if(spiHandle->Instance==SPI3)
 8000cd8:	687b      	ldr	r3, [r7, #4]
 8000cda:	681b      	ldr	r3, [r3, #0]
 8000cdc:	4a1c      	ldr	r2, [pc, #112]	@ (8000d50 <HAL_SPI_MspInit+0xf4>)
 8000cde:	4293      	cmp	r3, r2
 8000ce0:	d12c      	bne.n	8000d3c <HAL_SPI_MspInit+0xe0>
    __HAL_RCC_SPI3_CLK_ENABLE();
 8000ce2:	2300      	movs	r3, #0
 8000ce4:	613b      	str	r3, [r7, #16]
 8000ce6:	4b18      	ldr	r3, [pc, #96]	@ (8000d48 <HAL_SPI_MspInit+0xec>)
 8000ce8:	6c1b      	ldr	r3, [r3, #64]	@ 0x40
 8000cea:	4a17      	ldr	r2, [pc, #92]	@ (8000d48 <HAL_SPI_MspInit+0xec>)
 8000cec:	f443 4300 	orr.w	r3, r3, #32768	@ 0x8000
 8000cf0:	6413      	str	r3, [r2, #64]	@ 0x40
 8000cf2:	4b15      	ldr	r3, [pc, #84]	@ (8000d48 <HAL_SPI_MspInit+0xec>)
 8000cf4:	6c1b      	ldr	r3, [r3, #64]	@ 0x40
 8000cf6:	f403 4300 	and.w	r3, r3, #32768	@ 0x8000
 8000cfa:	613b      	str	r3, [r7, #16]
 8000cfc:	693b      	ldr	r3, [r7, #16]
    __HAL_RCC_GPIOC_CLK_ENABLE();
 8000cfe:	2300      	movs	r3, #0
 8000d00:	60fb      	str	r3, [r7, #12]
 8000d02:	4b11      	ldr	r3, [pc, #68]	@ (8000d48 <HAL_SPI_MspInit+0xec>)
 8000d04:	6b1b      	ldr	r3, [r3, #48]	@ 0x30
 8000d06:	4a10      	ldr	r2, [pc, #64]	@ (8000d48 <HAL_SPI_MspInit+0xec>)
 8000d08:	f043 0304 	orr.w	r3, r3, #4
 8000d0c:	6313      	str	r3, [r2, #48]	@ 0x30
 8000d0e:	4b0e      	ldr	r3, [pc, #56]	@ (8000d48 <HAL_SPI_MspInit+0xec>)
 8000d10:	6b1b      	ldr	r3, [r3, #48]	@ 0x30
 8000d12:	f003 0304 	and.w	r3, r3, #4
 8000d16:	60fb      	str	r3, [r7, #12]
 8000d18:	68fb      	ldr	r3, [r7, #12]
    GPIO_InitStruct.Pin = GPIO_PIN_10|GPIO_PIN_11|GPIO_PIN_12;
 8000d1a:	f44f 53e0 	mov.w	r3, #7168	@ 0x1c00
 8000d1e:	61fb      	str	r3, [r7, #28]
    GPIO_InitStruct.Mode = GPIO_MODE_AF_PP;
 8000d20:	2302      	movs	r3, #2
 8000d22:	623b      	str	r3, [r7, #32]
    GPIO_InitStruct.Pull = GPIO_NOPULL;
 8000d24:	2300      	movs	r3, #0
 8000d26:	627b      	str	r3, [r7, #36]	@ 0x24
    GPIO_InitStruct.Speed = GPIO_SPEED_FREQ_VERY_HIGH;
 8000d28:	2303      	movs	r3, #3
 8000d2a:	62bb      	str	r3, [r7, #40]	@ 0x28
    GPIO_InitStruct.Alternate = GPIO_AF6_SPI3;
 8000d2c:	2306      	movs	r3, #6
 8000d2e:	62fb      	str	r3, [r7, #44]	@ 0x2c
    HAL_GPIO_Init(GPIOC, &GPIO_InitStruct);
 8000d30:	f107 031c 	add.w	r3, r7, #28
 8000d34:	4619      	mov	r1, r3
 8000d36:	4807      	ldr	r0, [pc, #28]	@ (8000d54 <HAL_SPI_MspInit+0xf8>)
 8000d38:	f000 fbee 	bl	8001518 <HAL_GPIO_Init>
}
 8000d3c:	bf00      	nop
 8000d3e:	3730      	adds	r7, #48	@ 0x30
 8000d40:	46bd      	mov	sp, r7
 8000d42:	bd80      	pop	{r7, pc}
 8000d44:	40013000 	.word	0x40013000
 8000d48:	40023800 	.word	0x40023800
 8000d4c:	40020000 	.word	0x40020000
 8000d50:	40003c00 	.word	0x40003c00
 8000d54:	40020800 	.word	0x40020800

08000d58 <HAL_MspInit>:
/* USER CODE END 0 */
/**
  * Initializes the Global MSP.
  */
void HAL_MspInit(void)
{
 8000d58:	b480      	push	{r7}
 8000d5a:	b083      	sub	sp, #12
 8000d5c:	af00      	add	r7, sp, #0

  /* USER CODE BEGIN MspInit 0 */

  /* USER CODE END MspInit 0 */

  __HAL_RCC_SYSCFG_CLK_ENABLE();
 8000d5e:	2300      	movs	r3, #0
 8000d60:	607b      	str	r3, [r7, #4]
 8000d62:	4b10      	ldr	r3, [pc, #64]	@ (8000da4 <HAL_MspInit+0x4c>)
 8000d64:	6c5b      	ldr	r3, [r3, #68]	@ 0x44
 8000d66:	4a0f      	ldr	r2, [pc, #60]	@ (8000da4 <HAL_MspInit+0x4c>)
 8000d68:	f443 4380 	orr.w	r3, r3, #16384	@ 0x4000
 8000d6c:	6453      	str	r3, [r2, #68]	@ 0x44
 8000d6e:	4b0d      	ldr	r3, [pc, #52]	@ (8000da4 <HAL_MspInit+0x4c>)
 8000d70:	6c5b      	ldr	r3, [r3, #68]	@ 0x44
 8000d72:	f403 4380 	and.w	r3, r3, #16384	@ 0x4000
 8000d76:	607b      	str	r3, [r7, #4]
 8000d78:	687b      	ldr	r3, [r7, #4]
  __HAL_RCC_PWR_CLK_ENABLE();
 8000d7a:	2300      	movs	r3, #0
 8000d7c:	603b      	str	r3, [r7, #0]
 8000d7e:	4b09      	ldr	r3, [pc, #36]	@ (8000da4 <HAL_MspInit+0x4c>)
 8000d80:	6c1b      	ldr	r3, [r3, #64]	@ 0x40
 8000d82:	4a08      	ldr	r2, [pc, #32]	@ (8000da4 <HAL_MspInit+0x4c>)
 8000d84:	f043 5380 	orr.w	r3, r3, #268435456	@ 0x10000000
 8000d88:	6413      	str	r3, [r2, #64]	@ 0x40
 8000d8a:	4b06      	ldr	r3, [pc, #24]	@ (8000da4 <HAL_MspInit+0x4c>)
 8000d8c:	6c1b      	ldr	r3, [r3, #64]	@ 0x40
 8000d8e:	f003 5380 	and.w	r3, r3, #268435456	@ 0x10000000
 8000d92:	603b      	str	r3, [r7, #0]
 8000d94:	683b      	ldr	r3, [r7, #0]
  /* System interrupt init*/

  /* USER CODE BEGIN MspInit 1 */

  /* USER CODE END MspInit 1 */
}
 8000d96:	bf00      	nop
 8000d98:	370c      	adds	r7, #12
 8000d9a:	46bd      	mov	sp, r7
 8000d9c:	f85d 7b04 	ldr.w	r7, [sp], #4
 8000da0:	4770      	bx	lr
 8000da2:	bf00      	nop
 8000da4:	40023800 	.word	0x40023800

08000da8 <NMI_Handler>:
/******************************************************************************/
/**
  * @brief This function handles Non maskable interrupt.
  */
void NMI_Handler(void)
{
 8000da8:	b480      	push	{r7}
 8000daa:	af00      	add	r7, sp, #0
  /* USER CODE BEGIN NonMaskableInt_IRQn 0 */

  /* USER CODE END NonMaskableInt_IRQn 0 */
  /* USER CODE BEGIN NonMaskableInt_IRQn 1 */
   while (1)
 8000dac:	bf00      	nop
 8000dae:	e7fd      	b.n	8000dac <NMI_Handler+0x4>

08000db0 <HardFault_Handler>:

/**
  * @brief This function handles Hard fault interrupt.
  */
void HardFault_Handler(void)
{
 8000db0:	b480      	push	{r7}
 8000db2:	af00      	add	r7, sp, #0
  /* USER CODE BEGIN HardFault_IRQn 0 */

  /* USER CODE END HardFault_IRQn 0 */
  while (1)
 8000db4:	bf00      	nop
 8000db6:	e7fd      	b.n	8000db4 <HardFault_Handler+0x4>

08000db8 <MemManage_Handler>:

/**
  * @brief This function handles Memory management fault.
  */
void MemManage_Handler(void)
{
 8000db8:	b480      	push	{r7}
 8000dba:	af00      	add	r7, sp, #0
  /* USER CODE BEGIN MemoryManagement_IRQn 0 */

  /* USER CODE END MemoryManagement_IRQn 0 */
  while (1)
 8000dbc:	bf00      	nop
 8000dbe:	e7fd      	b.n	8000dbc <MemManage_Handler+0x4>

08000dc0 <BusFault_Handler>:

/**
  * @brief This function handles Pre-fetch fault, memory access fault.
  */
void BusFault_Handler(void)
{
 8000dc0:	b480      	push	{r7}
 8000dc2:	af00      	add	r7, sp, #0
  /* USER CODE BEGIN BusFault_IRQn 0 */

  /* USER CODE END BusFault_IRQn 0 */
  while (1)
 8000dc4:	bf00      	nop
 8000dc6:	e7fd      	b.n	8000dc4 <BusFault_Handler+0x4>

08000dc8 <UsageFault_Handler>:

/**
  * @brief This function handles Undefined instruction or illegal state.
  */
void UsageFault_Handler(void)
{
 8000dc8:	b480      	push	{r7}
 8000dca:	af00      	add	r7, sp, #0
  /* USER CODE BEGIN UsageFault_IRQn 0 */

  /* USER CODE END UsageFault_IRQn 0 */
  while (1)
 8000dcc:	bf00      	nop
 8000dce:	e7fd      	b.n	8000dcc <UsageFault_Handler+0x4>

08000dd0 <SVC_Handler>:

/**
  * @brief This function handles System service call via SWI instruction.
  */
void SVC_Handler(void)
{
 8000dd0:	b480      	push	{r7}
 8000dd2:	af00      	add	r7, sp, #0

  /* USER CODE END SVCall_IRQn 0 */
  /* USER CODE BEGIN SVCall_IRQn 1 */

  /* USER CODE END SVCall_IRQn 1 */
}
 8000dd4:	bf00      	nop
 8000dd6:	46bd      	mov	sp, r7
 8000dd8:	f85d 7b04 	ldr.w	r7, [sp], #4
 8000ddc:	4770      	bx	lr

08000dde <DebugMon_Handler>:

/**
  * @brief This function handles Debug monitor.
  */
void DebugMon_Handler(void)
{
 8000dde:	b480      	push	{r7}
 8000de0:	af00      	add	r7, sp, #0

  /* USER CODE END DebugMonitor_IRQn 0 */
  /* USER CODE BEGIN DebugMonitor_IRQn 1 */

  /* USER CODE END DebugMonitor_IRQn 1 */
}
 8000de2:	bf00      	nop
 8000de4:	46bd      	mov	sp, r7
 8000de6:	f85d 7b04 	ldr.w	r7, [sp], #4
 8000dea:	4770      	bx	lr

08000dec <PendSV_Handler>:

/**
  * @brief This function handles Pendable request for system service.
  */
void PendSV_Handler(void)
{
 8000dec:	b480      	push	{r7}
 8000dee:	af00      	add	r7, sp, #0

  /* USER CODE END PendSV_IRQn 0 */
  /* USER CODE BEGIN PendSV_IRQn 1 */

  /* USER CODE END PendSV_IRQn 1 */
}
 8000df0:	bf00      	nop
 8000df2:	46bd      	mov	sp, r7
 8000df4:	f85d 7b04 	ldr.w	r7, [sp], #4
 8000df8:	4770      	bx	lr

08000dfa <SysTick_Handler>:

/**
  * @brief This function handles System tick timer.
  */
void SysTick_Handler(void)
{
 8000dfa:	b580      	push	{r7, lr}
 8000dfc:	af00      	add	r7, sp, #0
  /* USER CODE BEGIN SysTick_IRQn 0 */

  /* USER CODE END SysTick_IRQn 0 */
  HAL_IncTick();
 8000dfe:	f000 fa35 	bl	800126c <HAL_IncTick>
  /* USER CODE BEGIN SysTick_IRQn 1 */

  /* USER CODE END SysTick_IRQn 1 */
}
 8000e02:	bf00      	nop
 8000e04:	bd80      	pop	{r7, pc}
	...

08000e08 <TIM1_UP_TIM10_IRQHandler>:

/**
  * @brief This function handles TIM1 update interrupt and TIM10 global interrupt.
  */
void TIM1_UP_TIM10_IRQHandler(void)
{
 8000e08:	b580      	push	{r7, lr}
 8000e0a:	af00      	add	r7, sp, #0
  /* USER CODE BEGIN TIM1_UP_TIM10_IRQn 0 */
//	printf("hello world \n\r");
	test += 0.01;
 8000e0c:	4b18      	ldr	r3, [pc, #96]	@ (8000e70 <TIM1_UP_TIM10_IRQHandler+0x68>)
 8000e0e:	681b      	ldr	r3, [r3, #0]
 8000e10:	4618      	mov	r0, r3
 8000e12:	f7ff fb5d 	bl	80004d0 <__aeabi_f2d>
 8000e16:	a314      	add	r3, pc, #80	@ (adr r3, 8000e68 <TIM1_UP_TIM10_IRQHandler+0x60>)
 8000e18:	e9d3 2300 	ldrd	r2, r3, [r3]
 8000e1c:	f7ff f9fa 	bl	8000214 <__adddf3>
 8000e20:	4602      	mov	r2, r0
 8000e22:	460b      	mov	r3, r1
 8000e24:	4610      	mov	r0, r2
 8000e26:	4619      	mov	r1, r3
 8000e28:	f7ff fbaa 	bl	8000580 <__aeabi_d2f>
 8000e2c:	4603      	mov	r3, r0
 8000e2e:	4a10      	ldr	r2, [pc, #64]	@ (8000e70 <TIM1_UP_TIM10_IRQHandler+0x68>)
 8000e30:	6013      	str	r3, [r2, #0]
  //mod by 100 to keep number small
  if (test >= 5) {
 8000e32:	4b0f      	ldr	r3, [pc, #60]	@ (8000e70 <TIM1_UP_TIM10_IRQHandler+0x68>)
 8000e34:	edd3 7a00 	vldr	s15, [r3]
 8000e38:	eeb1 7a04 	vmov.f32	s14, #20	@ 0x40a00000  5.0
 8000e3c:	eef4 7ac7 	vcmpe.f32	s15, s14
 8000e40:	eef1 fa10 	vmrs	APSR_nzcv, fpscr
 8000e44:	db03      	blt.n	8000e4e <TIM1_UP_TIM10_IRQHandler+0x46>
      test = 0;
 8000e46:	4b0a      	ldr	r3, [pc, #40]	@ (8000e70 <TIM1_UP_TIM10_IRQHandler+0x68>)
 8000e48:	f04f 0200 	mov.w	r2, #0
 8000e4c:	601a      	str	r2, [r3, #0]
  }
	send_float(test);
 8000e4e:	4b08      	ldr	r3, [pc, #32]	@ (8000e70 <TIM1_UP_TIM10_IRQHandler+0x68>)
 8000e50:	edd3 7a00 	vldr	s15, [r3]
 8000e54:	eeb0 0a67 	vmov.f32	s0, s15
 8000e58:	f000 f80e 	bl	8000e78 <send_float>

  /* USER CODE END TIM1_UP_TIM10_IRQn 0 */
  HAL_TIM_IRQHandler(&htim1);
 8000e5c:	4805      	ldr	r0, [pc, #20]	@ (8000e74 <TIM1_UP_TIM10_IRQHandler+0x6c>)
 8000e5e:	f001 fd53 	bl	8002908 <HAL_TIM_IRQHandler>
  /* USER CODE BEGIN TIM1_UP_TIM10_IRQn 1 */

  /* USER CODE END TIM1_UP_TIM10_IRQn 1 */
}
 8000e62:	bf00      	nop
 8000e64:	bd80      	pop	{r7, pc}
 8000e66:	bf00      	nop
 8000e68:	47ae147b 	.word	0x47ae147b
 8000e6c:	3f847ae1 	.word	0x3f847ae1
 8000e70:	200000d8 	.word	0x200000d8
 8000e74:	200000dc 	.word	0x200000dc

08000e78 <send_float>:

/* USER CODE BEGIN 1 */
void send_float(float f) {
 8000e78:	b580      	push	{r7, lr}
 8000e7a:	b084      	sub	sp, #16
 8000e7c:	af00      	add	r7, sp, #0
 8000e7e:	ed87 0a01 	vstr	s0, [r7, #4]
    uint8_t buf[4];
    memcpy(buf, &f, 4);
 8000e82:	687b      	ldr	r3, [r7, #4]
 8000e84:	60fb      	str	r3, [r7, #12]
    HAL_UART_Transmit(&huart2, buf, 4, 1);
 8000e86:	f107 010c 	add.w	r1, r7, #12
 8000e8a:	2301      	movs	r3, #1
 8000e8c:	2204      	movs	r2, #4
 8000e8e:	4803      	ldr	r0, [pc, #12]	@ (8000e9c <send_float+0x24>)
 8000e90:	f002 facc 	bl	800342c <HAL_UART_Transmit>
}
 8000e94:	bf00      	nop
 8000e96:	3710      	adds	r7, #16
 8000e98:	46bd      	mov	sp, r7
 8000e9a:	bd80      	pop	{r7, pc}
 8000e9c:	20000124 	.word	0x20000124

08000ea0 <SystemInit>:
  *         configuration.
  * @param  None
  * @retval None
  */
void SystemInit(void)
{
 8000ea0:	b480      	push	{r7}
 8000ea2:	af00      	add	r7, sp, #0
  /* FPU settings ------------------------------------------------------------*/
  #if (__FPU_PRESENT == 1) && (__FPU_USED == 1)
    SCB->CPACR |= ((3UL << 10*2)|(3UL << 11*2));  /* set CP10 and CP11 Full Access */
 8000ea4:	4b06      	ldr	r3, [pc, #24]	@ (8000ec0 <SystemInit+0x20>)
 8000ea6:	f8d3 3088 	ldr.w	r3, [r3, #136]	@ 0x88
 8000eaa:	4a05      	ldr	r2, [pc, #20]	@ (8000ec0 <SystemInit+0x20>)
 8000eac:	f443 0370 	orr.w	r3, r3, #15728640	@ 0xf00000
 8000eb0:	f8c2 3088 	str.w	r3, [r2, #136]	@ 0x88

  /* Configure the Vector Table location -------------------------------------*/
#if defined(USER_VECT_TAB_ADDRESS)
  SCB->VTOR = VECT_TAB_BASE_ADDRESS | VECT_TAB_OFFSET; /* Vector Table Relocation in Internal SRAM */
#endif /* USER_VECT_TAB_ADDRESS */
}
 8000eb4:	bf00      	nop
 8000eb6:	46bd      	mov	sp, r7
 8000eb8:	f85d 7b04 	ldr.w	r7, [sp], #4
 8000ebc:	4770      	bx	lr
 8000ebe:	bf00      	nop
 8000ec0:	e000ed00 	.word	0xe000ed00

08000ec4 <MX_TIM1_Init>:

TIM_HandleTypeDef htim1;

/* TIM1 init function */
void MX_TIM1_Init(void)
{
 8000ec4:	b580      	push	{r7, lr}
 8000ec6:	b092      	sub	sp, #72	@ 0x48
 8000ec8:	af00      	add	r7, sp, #0

  /* USER CODE BEGIN TIM1_Init 0 */

  /* USER CODE END TIM1_Init 0 */

  TIM_MasterConfigTypeDef sMasterConfig = {0};
 8000eca:	f107 0340 	add.w	r3, r7, #64	@ 0x40
 8000ece:	2200      	movs	r2, #0
 8000ed0:	601a      	str	r2, [r3, #0]
 8000ed2:	605a      	str	r2, [r3, #4]
  TIM_OC_InitTypeDef sConfigOC = {0};
 8000ed4:	f107 0324 	add.w	r3, r7, #36	@ 0x24
 8000ed8:	2200      	movs	r2, #0
 8000eda:	601a      	str	r2, [r3, #0]
 8000edc:	605a      	str	r2, [r3, #4]
 8000ede:	609a      	str	r2, [r3, #8]
 8000ee0:	60da      	str	r2, [r3, #12]
 8000ee2:	611a      	str	r2, [r3, #16]
 8000ee4:	615a      	str	r2, [r3, #20]
 8000ee6:	619a      	str	r2, [r3, #24]
  TIM_BreakDeadTimeConfigTypeDef sBreakDeadTimeConfig = {0};
 8000ee8:	1d3b      	adds	r3, r7, #4
 8000eea:	2220      	movs	r2, #32
 8000eec:	2100      	movs	r1, #0
 8000eee:	4618      	mov	r0, r3
 8000ef0:	f002 fe58 	bl	8003ba4 <memset>

  /* USER CODE BEGIN TIM1_Init 1 */

  /* USER CODE END TIM1_Init 1 */
  htim1.Instance = TIM1;
 8000ef4:	4b33      	ldr	r3, [pc, #204]	@ (8000fc4 <MX_TIM1_Init+0x100>)
 8000ef6:	4a34      	ldr	r2, [pc, #208]	@ (8000fc8 <MX_TIM1_Init+0x104>)
 8000ef8:	601a      	str	r2, [r3, #0]
  htim1.Init.Prescaler = 1800-1;
 8000efa:	4b32      	ldr	r3, [pc, #200]	@ (8000fc4 <MX_TIM1_Init+0x100>)
 8000efc:	f240 7207 	movw	r2, #1799	@ 0x707
 8000f00:	605a      	str	r2, [r3, #4]
  htim1.Init.CounterMode = TIM_COUNTERMODE_CENTERALIGNED1;
 8000f02:	4b30      	ldr	r3, [pc, #192]	@ (8000fc4 <MX_TIM1_Init+0x100>)
 8000f04:	2220      	movs	r2, #32
 8000f06:	609a      	str	r2, [r3, #8]
  htim1.Init.Period = 100-1;
 8000f08:	4b2e      	ldr	r3, [pc, #184]	@ (8000fc4 <MX_TIM1_Init+0x100>)
 8000f0a:	2263      	movs	r2, #99	@ 0x63
 8000f0c:	60da      	str	r2, [r3, #12]
  htim1.Init.ClockDivision = TIM_CLOCKDIVISION_DIV1;
 8000f0e:	4b2d      	ldr	r3, [pc, #180]	@ (8000fc4 <MX_TIM1_Init+0x100>)
 8000f10:	2200      	movs	r2, #0
 8000f12:	611a      	str	r2, [r3, #16]
  htim1.Init.RepetitionCounter = 1;
 8000f14:	4b2b      	ldr	r3, [pc, #172]	@ (8000fc4 <MX_TIM1_Init+0x100>)
 8000f16:	2201      	movs	r2, #1
 8000f18:	615a      	str	r2, [r3, #20]
  htim1.Init.AutoReloadPreload = TIM_AUTORELOAD_PRELOAD_ENABLE;
 8000f1a:	4b2a      	ldr	r3, [pc, #168]	@ (8000fc4 <MX_TIM1_Init+0x100>)
 8000f1c:	2280      	movs	r2, #128	@ 0x80
 8000f1e:	619a      	str	r2, [r3, #24]
  if (HAL_TIM_PWM_Init(&htim1) != HAL_OK)
 8000f20:	4828      	ldr	r0, [pc, #160]	@ (8000fc4 <MX_TIM1_Init+0x100>)
 8000f22:	f001 fbd9 	bl	80026d8 <HAL_TIM_PWM_Init>
 8000f26:	4603      	mov	r3, r0
 8000f28:	2b00      	cmp	r3, #0
 8000f2a:	d001      	beq.n	8000f30 <MX_TIM1_Init+0x6c>
  {
    Error_Handler();
 8000f2c:	f7ff fe20 	bl	8000b70 <Error_Handler>
  }
  sMasterConfig.MasterOutputTrigger = TIM_TRGO_RESET;
 8000f30:	2300      	movs	r3, #0
 8000f32:	643b      	str	r3, [r7, #64]	@ 0x40
  sMasterConfig.MasterSlaveMode = TIM_MASTERSLAVEMODE_DISABLE;
 8000f34:	2300      	movs	r3, #0
 8000f36:	647b      	str	r3, [r7, #68]	@ 0x44
  if (HAL_TIMEx_MasterConfigSynchronization(&htim1, &sMasterConfig) != HAL_OK)
 8000f38:	f107 0340 	add.w	r3, r7, #64	@ 0x40
 8000f3c:	4619      	mov	r1, r3
 8000f3e:	4821      	ldr	r0, [pc, #132]	@ (8000fc4 <MX_TIM1_Init+0x100>)
 8000f40:	f002 f942 	bl	80031c8 <HAL_TIMEx_MasterConfigSynchronization>
 8000f44:	4603      	mov	r3, r0
 8000f46:	2b00      	cmp	r3, #0
 8000f48:	d001      	beq.n	8000f4e <MX_TIM1_Init+0x8a>
  {
    Error_Handler();
 8000f4a:	f7ff fe11 	bl	8000b70 <Error_Handler>
  }
  sConfigOC.OCMode = TIM_OCMODE_PWM1;
 8000f4e:	2360      	movs	r3, #96	@ 0x60
 8000f50:	627b      	str	r3, [r7, #36]	@ 0x24
  sConfigOC.Pulse = 0;
 8000f52:	2300      	movs	r3, #0
 8000f54:	62bb      	str	r3, [r7, #40]	@ 0x28
  sConfigOC.OCPolarity = TIM_OCPOLARITY_HIGH;
 8000f56:	2300      	movs	r3, #0
 8000f58:	62fb      	str	r3, [r7, #44]	@ 0x2c
  sConfigOC.OCNPolarity = TIM_OCNPOLARITY_HIGH;
 8000f5a:	2300      	movs	r3, #0
 8000f5c:	633b      	str	r3, [r7, #48]	@ 0x30
  sConfigOC.OCFastMode = TIM_OCFAST_DISABLE;
 8000f5e:	2300      	movs	r3, #0
 8000f60:	637b      	str	r3, [r7, #52]	@ 0x34
  sConfigOC.OCIdleState = TIM_OCIDLESTATE_RESET;
 8000f62:	2300      	movs	r3, #0
 8000f64:	63bb      	str	r3, [r7, #56]	@ 0x38
  sConfigOC.OCNIdleState = TIM_OCNIDLESTATE_RESET;
 8000f66:	2300      	movs	r3, #0
 8000f68:	63fb      	str	r3, [r7, #60]	@ 0x3c
  if (HAL_TIM_PWM_ConfigChannel(&htim1, &sConfigOC, TIM_CHANNEL_1) != HAL_OK)
 8000f6a:	f107 0324 	add.w	r3, r7, #36	@ 0x24
 8000f6e:	2200      	movs	r2, #0
 8000f70:	4619      	mov	r1, r3
 8000f72:	4814      	ldr	r0, [pc, #80]	@ (8000fc4 <MX_TIM1_Init+0x100>)
 8000f74:	f001 fdb8 	bl	8002ae8 <HAL_TIM_PWM_ConfigChannel>
 8000f78:	4603      	mov	r3, r0
 8000f7a:	2b00      	cmp	r3, #0
 8000f7c:	d001      	beq.n	8000f82 <MX_TIM1_Init+0xbe>
  {
    Error_Handler();
 8000f7e:	f7ff fdf7 	bl	8000b70 <Error_Handler>
  }
  sBreakDeadTimeConfig.OffStateRunMode = TIM_OSSR_DISABLE;
 8000f82:	2300      	movs	r3, #0
 8000f84:	607b      	str	r3, [r7, #4]
  sBreakDeadTimeConfig.OffStateIDLEMode = TIM_OSSI_DISABLE;
 8000f86:	2300      	movs	r3, #0
 8000f88:	60bb      	str	r3, [r7, #8]
  sBreakDeadTimeConfig.LockLevel = TIM_LOCKLEVEL_OFF;
 8000f8a:	2300      	movs	r3, #0
 8000f8c:	60fb      	str	r3, [r7, #12]
  sBreakDeadTimeConfig.DeadTime = 0;
 8000f8e:	2300      	movs	r3, #0
 8000f90:	613b      	str	r3, [r7, #16]
  sBreakDeadTimeConfig.BreakState = TIM_BREAK_DISABLE;
 8000f92:	2300      	movs	r3, #0
 8000f94:	617b      	str	r3, [r7, #20]
  sBreakDeadTimeConfig.BreakPolarity = TIM_BREAKPOLARITY_HIGH;
 8000f96:	f44f 5300 	mov.w	r3, #8192	@ 0x2000
 8000f9a:	61bb      	str	r3, [r7, #24]
  sBreakDeadTimeConfig.AutomaticOutput = TIM_AUTOMATICOUTPUT_DISABLE;
 8000f9c:	2300      	movs	r3, #0
 8000f9e:	623b      	str	r3, [r7, #32]
  if (HAL_TIMEx_ConfigBreakDeadTime(&htim1, &sBreakDeadTimeConfig) != HAL_OK)
 8000fa0:	1d3b      	adds	r3, r7, #4
 8000fa2:	4619      	mov	r1, r3
 8000fa4:	4807      	ldr	r0, [pc, #28]	@ (8000fc4 <MX_TIM1_Init+0x100>)
 8000fa6:	f002 f98b 	bl	80032c0 <HAL_TIMEx_ConfigBreakDeadTime>
 8000faa:	4603      	mov	r3, r0
 8000fac:	2b00      	cmp	r3, #0
 8000fae:	d001      	beq.n	8000fb4 <MX_TIM1_Init+0xf0>
  {
    Error_Handler();
 8000fb0:	f7ff fdde 	bl	8000b70 <Error_Handler>
  }
  /* USER CODE BEGIN TIM1_Init 2 */

  /* USER CODE END TIM1_Init 2 */
  HAL_TIM_MspPostInit(&htim1);
 8000fb4:	4803      	ldr	r0, [pc, #12]	@ (8000fc4 <MX_TIM1_Init+0x100>)
 8000fb6:	f000 f831 	bl	800101c <HAL_TIM_MspPostInit>

}
 8000fba:	bf00      	nop
 8000fbc:	3748      	adds	r7, #72	@ 0x48
 8000fbe:	46bd      	mov	sp, r7
 8000fc0:	bd80      	pop	{r7, pc}
 8000fc2:	bf00      	nop
 8000fc4:	200000dc 	.word	0x200000dc
 8000fc8:	40010000 	.word	0x40010000

08000fcc <HAL_TIM_PWM_MspInit>:

void HAL_TIM_PWM_MspInit(TIM_HandleTypeDef* tim_pwmHandle)
{
 8000fcc:	b580      	push	{r7, lr}
 8000fce:	b084      	sub	sp, #16
 8000fd0:	af00      	add	r7, sp, #0
 8000fd2:	6078      	str	r0, [r7, #4]

  if(tim_pwmHandle->Instance==TIM1)
 8000fd4:	687b      	ldr	r3, [r7, #4]
 8000fd6:	681b      	ldr	r3, [r3, #0]
 8000fd8:	4a0e      	ldr	r2, [pc, #56]	@ (8001014 <HAL_TIM_PWM_MspInit+0x48>)
 8000fda:	4293      	cmp	r3, r2
 8000fdc:	d115      	bne.n	800100a <HAL_TIM_PWM_MspInit+0x3e>
  {
  /* USER CODE BEGIN TIM1_MspInit 0 */

  /* USER CODE END TIM1_MspInit 0 */
    /* TIM1 clock enable */
    __HAL_RCC_TIM1_CLK_ENABLE();
 8000fde:	2300      	movs	r3, #0
 8000fe0:	60fb      	str	r3, [r7, #12]
 8000fe2:	4b0d      	ldr	r3, [pc, #52]	@ (8001018 <HAL_TIM_PWM_MspInit+0x4c>)
 8000fe4:	6c5b      	ldr	r3, [r3, #68]	@ 0x44
 8000fe6:	4a0c      	ldr	r2, [pc, #48]	@ (8001018 <HAL_TIM_PWM_MspInit+0x4c>)
 8000fe8:	f043 0301 	orr.w	r3, r3, #1
 8000fec:	6453      	str	r3, [r2, #68]	@ 0x44
 8000fee:	4b0a      	ldr	r3, [pc, #40]	@ (8001018 <HAL_TIM_PWM_MspInit+0x4c>)
 8000ff0:	6c5b      	ldr	r3, [r3, #68]	@ 0x44
 8000ff2:	f003 0301 	and.w	r3, r3, #1
 8000ff6:	60fb      	str	r3, [r7, #12]
 8000ff8:	68fb      	ldr	r3, [r7, #12]

    /* TIM1 interrupt Init */
    HAL_NVIC_SetPriority(TIM1_UP_TIM10_IRQn, 0, 0);
 8000ffa:	2200      	movs	r2, #0
 8000ffc:	2100      	movs	r1, #0
 8000ffe:	2019      	movs	r0, #25
 8001000:	f000 fa53 	bl	80014aa <HAL_NVIC_SetPriority>
    HAL_NVIC_EnableIRQ(TIM1_UP_TIM10_IRQn);
 8001004:	2019      	movs	r0, #25
 8001006:	f000 fa6c 	bl	80014e2 <HAL_NVIC_EnableIRQ>
  /* USER CODE BEGIN TIM1_MspInit 1 */

  /* USER CODE END TIM1_MspInit 1 */
  }
}
 800100a:	bf00      	nop
 800100c:	3710      	adds	r7, #16
 800100e:	46bd      	mov	sp, r7
 8001010:	bd80      	pop	{r7, pc}
 8001012:	bf00      	nop
 8001014:	40010000 	.word	0x40010000
 8001018:	40023800 	.word	0x40023800

0800101c <HAL_TIM_MspPostInit>:
void HAL_TIM_MspPostInit(TIM_HandleTypeDef* timHandle)
{
 800101c:	b580      	push	{r7, lr}
 800101e:	b088      	sub	sp, #32
 8001020:	af00      	add	r7, sp, #0
 8001022:	6078      	str	r0, [r7, #4]

  GPIO_InitTypeDef GPIO_InitStruct = {0};
 8001024:	f107 030c 	add.w	r3, r7, #12
 8001028:	2200      	movs	r2, #0
 800102a:	601a      	str	r2, [r3, #0]
 800102c:	605a      	str	r2, [r3, #4]
 800102e:	609a      	str	r2, [r3, #8]
 8001030:	60da      	str	r2, [r3, #12]
 8001032:	611a      	str	r2, [r3, #16]
  if(timHandle->Instance==TIM1)
 8001034:	687b      	ldr	r3, [r7, #4]
 8001036:	681b      	ldr	r3, [r3, #0]
 8001038:	4a12      	ldr	r2, [pc, #72]	@ (8001084 <HAL_TIM_MspPostInit+0x68>)
 800103a:	4293      	cmp	r3, r2
 800103c:	d11e      	bne.n	800107c <HAL_TIM_MspPostInit+0x60>
  {
  /* USER CODE BEGIN TIM1_MspPostInit 0 */

  /* USER CODE END TIM1_MspPostInit 0 */

    __HAL_RCC_GPIOA_CLK_ENABLE();
 800103e:	2300      	movs	r3, #0
 8001040:	60bb      	str	r3, [r7, #8]
 8001042:	4b11      	ldr	r3, [pc, #68]	@ (8001088 <HAL_TIM_MspPostInit+0x6c>)
 8001044:	6b1b      	ldr	r3, [r3, #48]	@ 0x30
 8001046:	4a10      	ldr	r2, [pc, #64]	@ (8001088 <HAL_TIM_MspPostInit+0x6c>)
 8001048:	f043 0301 	orr.w	r3, r3, #1
 800104c:	6313      	str	r3, [r2, #48]	@ 0x30
 800104e:	4b0e      	ldr	r3, [pc, #56]	@ (8001088 <HAL_TIM_MspPostInit+0x6c>)
 8001050:	6b1b      	ldr	r3, [r3, #48]	@ 0x30
 8001052:	f003 0301 	and.w	r3, r3, #1
 8001056:	60bb      	str	r3, [r7, #8]
 8001058:	68bb      	ldr	r3, [r7, #8]
    /**TIM1 GPIO Configuration
    PA8     ------> TIM1_CH1
    */
    GPIO_InitStruct.Pin = GPIO_PIN_8;
 800105a:	f44f 7380 	mov.w	r3, #256	@ 0x100
 800105e:	60fb      	str	r3, [r7, #12]
    GPIO_InitStruct.Mode = GPIO_MODE_AF_PP;
 8001060:	2302      	movs	r3, #2
 8001062:	613b      	str	r3, [r7, #16]
    GPIO_InitStruct.Pull = GPIO_NOPULL;
 8001064:	2300      	movs	r3, #0
 8001066:	617b      	str	r3, [r7, #20]
    GPIO_InitStruct.Speed = GPIO_SPEED_FREQ_LOW;
 8001068:	2300      	movs	r3, #0
 800106a:	61bb      	str	r3, [r7, #24]
    GPIO_InitStruct.Alternate = GPIO_AF1_TIM1;
 800106c:	2301      	movs	r3, #1
 800106e:	61fb      	str	r3, [r7, #28]
    HAL_GPIO_Init(GPIOA, &GPIO_InitStruct);
 8001070:	f107 030c 	add.w	r3, r7, #12
 8001074:	4619      	mov	r1, r3
 8001076:	4805      	ldr	r0, [pc, #20]	@ (800108c <HAL_TIM_MspPostInit+0x70>)
 8001078:	f000 fa4e 	bl	8001518 <HAL_GPIO_Init>
  /* USER CODE BEGIN TIM1_MspPostInit 1 */

  /* USER CODE END TIM1_MspPostInit 1 */
  }

}
 800107c:	bf00      	nop
 800107e:	3720      	adds	r7, #32
 8001080:	46bd      	mov	sp, r7
 8001082:	bd80      	pop	{r7, pc}
 8001084:	40010000 	.word	0x40010000
 8001088:	40023800 	.word	0x40023800
 800108c:	40020000 	.word	0x40020000

08001090 <MX_USART2_UART_Init>:
UART_HandleTypeDef huart2;

/* USART2 init function */

void MX_USART2_UART_Init(void)
{
 8001090:	b580      	push	{r7, lr}
 8001092:	af00      	add	r7, sp, #0
  /* USER CODE END USART2_Init 0 */

  /* USER CODE BEGIN USART2_Init 1 */

  /* USER CODE END USART2_Init 1 */
  huart2.Instance = USART2;
 8001094:	4b11      	ldr	r3, [pc, #68]	@ (80010dc <MX_USART2_UART_Init+0x4c>)
 8001096:	4a12      	ldr	r2, [pc, #72]	@ (80010e0 <MX_USART2_UART_Init+0x50>)
 8001098:	601a      	str	r2, [r3, #0]
  huart2.Init.BaudRate = 115200;
 800109a:	4b10      	ldr	r3, [pc, #64]	@ (80010dc <MX_USART2_UART_Init+0x4c>)
 800109c:	f44f 32e1 	mov.w	r2, #115200	@ 0x1c200
 80010a0:	605a      	str	r2, [r3, #4]
  huart2.Init.WordLength = UART_WORDLENGTH_8B;
 80010a2:	4b0e      	ldr	r3, [pc, #56]	@ (80010dc <MX_USART2_UART_Init+0x4c>)
 80010a4:	2200      	movs	r2, #0
 80010a6:	609a      	str	r2, [r3, #8]
  huart2.Init.StopBits = UART_STOPBITS_1;
 80010a8:	4b0c      	ldr	r3, [pc, #48]	@ (80010dc <MX_USART2_UART_Init+0x4c>)
 80010aa:	2200      	movs	r2, #0
 80010ac:	60da      	str	r2, [r3, #12]
  huart2.Init.Parity = UART_PARITY_NONE;
 80010ae:	4b0b      	ldr	r3, [pc, #44]	@ (80010dc <MX_USART2_UART_Init+0x4c>)
 80010b0:	2200      	movs	r2, #0
 80010b2:	611a      	str	r2, [r3, #16]
  huart2.Init.Mode = UART_MODE_TX_RX;
 80010b4:	4b09      	ldr	r3, [pc, #36]	@ (80010dc <MX_USART2_UART_Init+0x4c>)
 80010b6:	220c      	movs	r2, #12
 80010b8:	615a      	str	r2, [r3, #20]
  huart2.Init.HwFlowCtl = UART_HWCONTROL_NONE;
 80010ba:	4b08      	ldr	r3, [pc, #32]	@ (80010dc <MX_USART2_UART_Init+0x4c>)
 80010bc:	2200      	movs	r2, #0
 80010be:	619a      	str	r2, [r3, #24]
  huart2.Init.OverSampling = UART_OVERSAMPLING_16;
 80010c0:	4b06      	ldr	r3, [pc, #24]	@ (80010dc <MX_USART2_UART_Init+0x4c>)
 80010c2:	2200      	movs	r2, #0
 80010c4:	61da      	str	r2, [r3, #28]
  if (HAL_UART_Init(&huart2) != HAL_OK)
 80010c6:	4805      	ldr	r0, [pc, #20]	@ (80010dc <MX_USART2_UART_Init+0x4c>)
 80010c8:	f002 f960 	bl	800338c <HAL_UART_Init>
 80010cc:	4603      	mov	r3, r0
 80010ce:	2b00      	cmp	r3, #0
 80010d0:	d001      	beq.n	80010d6 <MX_USART2_UART_Init+0x46>
  {
    Error_Handler();
 80010d2:	f7ff fd4d 	bl	8000b70 <Error_Handler>
  }
  /* USER CODE BEGIN USART2_Init 2 */

  /* USER CODE END USART2_Init 2 */

}
 80010d6:	bf00      	nop
 80010d8:	bd80      	pop	{r7, pc}
 80010da:	bf00      	nop
 80010dc:	20000124 	.word	0x20000124
 80010e0:	40004400 	.word	0x40004400

080010e4 <HAL_UART_MspInit>:

void HAL_UART_MspInit(UART_HandleTypeDef* uartHandle)
{
 80010e4:	b580      	push	{r7, lr}
 80010e6:	b08a      	sub	sp, #40	@ 0x28
 80010e8:	af00      	add	r7, sp, #0
 80010ea:	6078      	str	r0, [r7, #4]

  GPIO_InitTypeDef GPIO_InitStruct = {0};
 80010ec:	f107 0314 	add.w	r3, r7, #20
 80010f0:	2200      	movs	r2, #0
 80010f2:	601a      	str	r2, [r3, #0]
 80010f4:	605a      	str	r2, [r3, #4]
 80010f6:	609a      	str	r2, [r3, #8]
 80010f8:	60da      	str	r2, [r3, #12]
 80010fa:	611a      	str	r2, [r3, #16]
  if(uartHandle->Instance==USART2)
 80010fc:	687b      	ldr	r3, [r7, #4]
 80010fe:	681b      	ldr	r3, [r3, #0]
 8001100:	4a19      	ldr	r2, [pc, #100]	@ (8001168 <HAL_UART_MspInit+0x84>)
 8001102:	4293      	cmp	r3, r2
 8001104:	d12b      	bne.n	800115e <HAL_UART_MspInit+0x7a>
  {
  /* USER CODE BEGIN USART2_MspInit 0 */

  /* USER CODE END USART2_MspInit 0 */
    /* USART2 clock enable */
    __HAL_RCC_USART2_CLK_ENABLE();
 8001106:	2300      	movs	r3, #0
 8001108:	613b      	str	r3, [r7, #16]
 800110a:	4b18      	ldr	r3, [pc, #96]	@ (800116c <HAL_UART_MspInit+0x88>)
 800110c:	6c1b      	ldr	r3, [r3, #64]	@ 0x40
 800110e:	4a17      	ldr	r2, [pc, #92]	@ (800116c <HAL_UART_MspInit+0x88>)
 8001110:	f443 3300 	orr.w	r3, r3, #131072	@ 0x20000
 8001114:	6413      	str	r3, [r2, #64]	@ 0x40
 8001116:	4b15      	ldr	r3, [pc, #84]	@ (800116c <HAL_UART_MspInit+0x88>)
 8001118:	6c1b      	ldr	r3, [r3, #64]	@ 0x40
 800111a:	f403 3300 	and.w	r3, r3, #131072	@ 0x20000
 800111e:	613b      	str	r3, [r7, #16]
 8001120:	693b      	ldr	r3, [r7, #16]

    __HAL_RCC_GPIOA_CLK_ENABLE();
 8001122:	2300      	movs	r3, #0
 8001124:	60fb      	str	r3, [r7, #12]
 8001126:	4b11      	ldr	r3, [pc, #68]	@ (800116c <HAL_UART_MspInit+0x88>)
 8001128:	6b1b      	ldr	r3, [r3, #48]	@ 0x30
 800112a:	4a10      	ldr	r2, [pc, #64]	@ (800116c <HAL_UART_MspInit+0x88>)
 800112c:	f043 0301 	orr.w	r3, r3, #1
 8001130:	6313      	str	r3, [r2, #48]	@ 0x30
 8001132:	4b0e      	ldr	r3, [pc, #56]	@ (800116c <HAL_UART_MspInit+0x88>)
 8001134:	6b1b      	ldr	r3, [r3, #48]	@ 0x30
 8001136:	f003 0301 	and.w	r3, r3, #1
 800113a:	60fb      	str	r3, [r7, #12]
 800113c:	68fb      	ldr	r3, [r7, #12]
    /**USART2 GPIO Configuration
    PA2     ------> USART2_TX
    PA3     ------> USART2_RX
    */
    GPIO_InitStruct.Pin = GPIO_PIN_2|GPIO_PIN_3;
 800113e:	230c      	movs	r3, #12
 8001140:	617b      	str	r3, [r7, #20]
    GPIO_InitStruct.Mode = GPIO_MODE_AF_PP;
 8001142:	2302      	movs	r3, #2
 8001144:	61bb      	str	r3, [r7, #24]
    GPIO_InitStruct.Pull = GPIO_NOPULL;
 8001146:	2300      	movs	r3, #0
 8001148:	61fb      	str	r3, [r7, #28]
    GPIO_InitStruct.Speed = GPIO_SPEED_FREQ_VERY_HIGH;
 800114a:	2303      	movs	r3, #3
 800114c:	623b      	str	r3, [r7, #32]
    GPIO_InitStruct.Alternate = GPIO_AF7_USART2;
 800114e:	2307      	movs	r3, #7
 8001150:	627b      	str	r3, [r7, #36]	@ 0x24
    HAL_GPIO_Init(GPIOA, &GPIO_InitStruct);
 8001152:	f107 0314 	add.w	r3, r7, #20
 8001156:	4619      	mov	r1, r3
 8001158:	4805      	ldr	r0, [pc, #20]	@ (8001170 <HAL_UART_MspInit+0x8c>)
 800115a:	f000 f9dd 	bl	8001518 <HAL_GPIO_Init>

  /* USER CODE BEGIN USART2_MspInit 1 */

  /* USER CODE END USART2_MspInit 1 */
  }
}
 800115e:	bf00      	nop
 8001160:	3728      	adds	r7, #40	@ 0x28
 8001162:	46bd      	mov	sp, r7
 8001164:	bd80      	pop	{r7, pc}
 8001166:	bf00      	nop
 8001168:	40004400 	.word	0x40004400
 800116c:	40023800 	.word	0x40023800
 8001170:	40020000 	.word	0x40020000

08001174 <Reset_Handler>:
 8001174:	f8df d034 	ldr.w	sp, [pc, #52]	@ 80011ac <LoopFillZerobss+0xe>
 8001178:	f7ff fe92 	bl	8000ea0 <SystemInit>
 800117c:	480c      	ldr	r0, [pc, #48]	@ (80011b0 <LoopFillZerobss+0x12>)
 800117e:	490d      	ldr	r1, [pc, #52]	@ (80011b4 <LoopFillZerobss+0x16>)
 8001180:	4a0d      	ldr	r2, [pc, #52]	@ (80011b8 <LoopFillZerobss+0x1a>)
 8001182:	2300      	movs	r3, #0
 8001184:	e002      	b.n	800118c <LoopCopyDataInit>

08001186 <CopyDataInit>:
 8001186:	58d4      	ldr	r4, [r2, r3]
 8001188:	50c4      	str	r4, [r0, r3]
 800118a:	3304      	adds	r3, #4

0800118c <LoopCopyDataInit>:
 800118c:	18c4      	adds	r4, r0, r3
 800118e:	428c      	cmp	r4, r1
 8001190:	d3f9      	bcc.n	8001186 <CopyDataInit>
 8001192:	4a0a      	ldr	r2, [pc, #40]	@ (80011bc <LoopFillZerobss+0x1e>)
 8001194:	4c0a      	ldr	r4, [pc, #40]	@ (80011c0 <LoopFillZerobss+0x22>)
 8001196:	2300      	movs	r3, #0
 8001198:	e001      	b.n	800119e <LoopFillZerobss>

0800119a <FillZerobss>:
 800119a:	6013      	str	r3, [r2, #0]
 800119c:	3204      	adds	r2, #4

0800119e <LoopFillZerobss>:
 800119e:	42a2      	cmp	r2, r4
 80011a0:	d3fb      	bcc.n	800119a <FillZerobss>
 80011a2:	f002 fd07 	bl	8003bb4 <__libc_init_array>
 80011a6:	f7ff fc39 	bl	8000a1c <main>
 80011aa:	4770      	bx	lr
 80011ac:	20020000 	.word	0x20020000
 80011b0:	20000000 	.word	0x20000000
 80011b4:	2000000c 	.word	0x2000000c
 80011b8:	08003c3c 	.word	0x08003c3c
 80011bc:	2000000c 	.word	0x2000000c
 80011c0:	20000170 	.word	0x20000170

080011c4 <ADC_IRQHandler>:
 80011c4:	e7fe      	b.n	80011c4 <ADC_IRQHandler>
	...

080011c8 <HAL_Init>:
  *         need to ensure that the SysTick time base is always set to 1 millisecond
  *         to have correct HAL operation.
  * @retval HAL status
  */
HAL_StatusTypeDef HAL_Init(void)
{
 80011c8:	b580      	push	{r7, lr}
 80011ca:	af00      	add	r7, sp, #0
  /* Configure Flash prefetch, Instruction cache, Data cache */ 
#if (INSTRUCTION_CACHE_ENABLE != 0U)
  __HAL_FLASH_INSTRUCTION_CACHE_ENABLE();
 80011cc:	4b0e      	ldr	r3, [pc, #56]	@ (8001208 <HAL_Init+0x40>)
 80011ce:	681b      	ldr	r3, [r3, #0]
 80011d0:	4a0d      	ldr	r2, [pc, #52]	@ (8001208 <HAL_Init+0x40>)
 80011d2:	f443 7300 	orr.w	r3, r3, #512	@ 0x200
 80011d6:	6013      	str	r3, [r2, #0]
#endif /* INSTRUCTION_CACHE_ENABLE */

#if (DATA_CACHE_ENABLE != 0U)
  __HAL_FLASH_DATA_CACHE_ENABLE();
 80011d8:	4b0b      	ldr	r3, [pc, #44]	@ (8001208 <HAL_Init+0x40>)
 80011da:	681b      	ldr	r3, [r3, #0]
 80011dc:	4a0a      	ldr	r2, [pc, #40]	@ (8001208 <HAL_Init+0x40>)
 80011de:	f443 6380 	orr.w	r3, r3, #1024	@ 0x400
 80011e2:	6013      	str	r3, [r2, #0]
#endif /* DATA_CACHE_ENABLE */

#if (PREFETCH_ENABLE != 0U)
  __HAL_FLASH_PREFETCH_BUFFER_ENABLE();
 80011e4:	4b08      	ldr	r3, [pc, #32]	@ (8001208 <HAL_Init+0x40>)
 80011e6:	681b      	ldr	r3, [r3, #0]
 80011e8:	4a07      	ldr	r2, [pc, #28]	@ (8001208 <HAL_Init+0x40>)
 80011ea:	f443 7380 	orr.w	r3, r3, #256	@ 0x100
 80011ee:	6013      	str	r3, [r2, #0]
#endif /* PREFETCH_ENABLE */

  /* Set Interrupt Group Priority */
  HAL_NVIC_SetPriorityGrouping(NVIC_PRIORITYGROUP_4);
 80011f0:	2003      	movs	r0, #3
 80011f2:	f000 f94f 	bl	8001494 <HAL_NVIC_SetPriorityGrouping>

  /* Use systick as time base source and configure 1ms tick (default clock after Reset is HSI) */
  HAL_InitTick(TICK_INT_PRIORITY);
 80011f6:	200f      	movs	r0, #15
 80011f8:	f000 f808 	bl	800120c <HAL_InitTick>

  /* Init the low level hardware */
  HAL_MspInit();
 80011fc:	f7ff fdac 	bl	8000d58 <HAL_MspInit>

  /* Return function status */
  return HAL_OK;
 8001200:	2300      	movs	r3, #0
}
 8001202:	4618      	mov	r0, r3
 8001204:	bd80      	pop	{r7, pc}
 8001206:	bf00      	nop
 8001208:	40023c00 	.word	0x40023c00

0800120c <HAL_InitTick>:
  *       implementation  in user file.
  * @param TickPriority Tick interrupt priority.
  * @retval HAL status
  */
__weak HAL_StatusTypeDef HAL_InitTick(uint32_t TickPriority)
{
 800120c:	b580      	push	{r7, lr}
 800120e:	b082      	sub	sp, #8
 8001210:	af00      	add	r7, sp, #0
 8001212:	6078      	str	r0, [r7, #4]
  /* Configure the SysTick to have interrupt in 1ms time basis*/
  if (HAL_SYSTICK_Config(SystemCoreClock / (1000U / uwTickFreq)) > 0U)
 8001214:	4b12      	ldr	r3, [pc, #72]	@ (8001260 <HAL_InitTick+0x54>)
 8001216:	681a      	ldr	r2, [r3, #0]
 8001218:	4b12      	ldr	r3, [pc, #72]	@ (8001264 <HAL_InitTick+0x58>)
 800121a:	781b      	ldrb	r3, [r3, #0]
 800121c:	4619      	mov	r1, r3
 800121e:	f44f 737a 	mov.w	r3, #1000	@ 0x3e8
 8001222:	fbb3 f3f1 	udiv	r3, r3, r1
 8001226:	fbb2 f3f3 	udiv	r3, r2, r3
 800122a:	4618      	mov	r0, r3
 800122c:	f000 f967 	bl	80014fe <HAL_SYSTICK_Config>
 8001230:	4603      	mov	r3, r0
 8001232:	2b00      	cmp	r3, #0
 8001234:	d001      	beq.n	800123a <HAL_InitTick+0x2e>
  {
    return HAL_ERROR;
 8001236:	2301      	movs	r3, #1
 8001238:	e00e      	b.n	8001258 <HAL_InitTick+0x4c>
  }

  /* Configure the SysTick IRQ priority */
  if (TickPriority < (1UL << __NVIC_PRIO_BITS))
 800123a:	687b      	ldr	r3, [r7, #4]
 800123c:	2b0f      	cmp	r3, #15
 800123e:	d80a      	bhi.n	8001256 <HAL_InitTick+0x4a>
  {
    HAL_NVIC_SetPriority(SysTick_IRQn, TickPriority, 0U);
 8001240:	2200      	movs	r2, #0
 8001242:	6879      	ldr	r1, [r7, #4]
 8001244:	f04f 30ff 	mov.w	r0, #4294967295	@ 0xffffffff
 8001248:	f000 f92f 	bl	80014aa <HAL_NVIC_SetPriority>
    uwTickPrio = TickPriority;
 800124c:	4a06      	ldr	r2, [pc, #24]	@ (8001268 <HAL_InitTick+0x5c>)
 800124e:	687b      	ldr	r3, [r7, #4]
 8001250:	6013      	str	r3, [r2, #0]
  {
    return HAL_ERROR;
  }

  /* Return function status */
  return HAL_OK;
 8001252:	2300      	movs	r3, #0
 8001254:	e000      	b.n	8001258 <HAL_InitTick+0x4c>
    return HAL_ERROR;
 8001256:	2301      	movs	r3, #1
}
 8001258:	4618      	mov	r0, r3
 800125a:	3708      	adds	r7, #8
 800125c:	46bd      	mov	sp, r7
 800125e:	bd80      	pop	{r7, pc}
 8001260:	20000000 	.word	0x20000000
 8001264:	20000008 	.word	0x20000008
 8001268:	20000004 	.word	0x20000004

0800126c <HAL_IncTick>:
 * @note This function is declared as __weak to be overwritten in case of other 
  *      implementations in user file.
  * @retval None
  */
__weak void HAL_IncTick(void)
{
 800126c:	b480      	push	{r7}
 800126e:	af00      	add	r7, sp, #0
  uwTick += uwTickFreq;
 8001270:	4b06      	ldr	r3, [pc, #24]	@ (800128c <HAL_IncTick+0x20>)
 8001272:	781b      	ldrb	r3, [r3, #0]
 8001274:	461a      	mov	r2, r3
 8001276:	4b06      	ldr	r3, [pc, #24]	@ (8001290 <HAL_IncTick+0x24>)
 8001278:	681b      	ldr	r3, [r3, #0]
 800127a:	4413      	add	r3, r2
 800127c:	4a04      	ldr	r2, [pc, #16]	@ (8001290 <HAL_IncTick+0x24>)
 800127e:	6013      	str	r3, [r2, #0]
}
 8001280:	bf00      	nop
 8001282:	46bd      	mov	sp, r7
 8001284:	f85d 7b04 	ldr.w	r7, [sp], #4
 8001288:	4770      	bx	lr
 800128a:	bf00      	nop
 800128c:	20000008 	.word	0x20000008
 8001290:	2000016c 	.word	0x2000016c

08001294 <HAL_GetTick>:
  * @note This function is declared as __weak to be overwritten in case of other 
  *       implementations in user file.
  * @retval tick value
  */
__weak uint32_t HAL_GetTick(void)
{
 8001294:	b480      	push	{r7}
 8001296:	af00      	add	r7, sp, #0
  return uwTick;
 8001298:	4b03      	ldr	r3, [pc, #12]	@ (80012a8 <HAL_GetTick+0x14>)
 800129a:	681b      	ldr	r3, [r3, #0]
}
 800129c:	4618      	mov	r0, r3
 800129e:	46bd      	mov	sp, r7
 80012a0:	f85d 7b04 	ldr.w	r7, [sp], #4
 80012a4:	4770      	bx	lr
 80012a6:	bf00      	nop
 80012a8:	2000016c 	.word	0x2000016c

080012ac <HAL_Delay>:
  *       implementations in user file.
  * @param Delay specifies the delay time length, in milliseconds.
  * @retval None
  */
__weak void HAL_Delay(uint32_t Delay)
{
 80012ac:	b580      	push	{r7, lr}
 80012ae:	b084      	sub	sp, #16
 80012b0:	af00      	add	r7, sp, #0
 80012b2:	6078      	str	r0, [r7, #4]
  uint32_t tickstart = HAL_GetTick();
 80012b4:	f7ff ffee 	bl	8001294 <HAL_GetTick>
 80012b8:	60b8      	str	r0, [r7, #8]
  uint32_t wait = Delay;
 80012ba:	687b      	ldr	r3, [r7, #4]
 80012bc:	60fb      	str	r3, [r7, #12]

  /* Add a freq to guarantee minimum wait */
  if (wait < HAL_MAX_DELAY)
 80012be:	68fb      	ldr	r3, [r7, #12]
 80012c0:	f1b3 3fff 	cmp.w	r3, #4294967295	@ 0xffffffff
 80012c4:	d005      	beq.n	80012d2 <HAL_Delay+0x26>
  {
    wait += (uint32_t)(uwTickFreq);
 80012c6:	4b0a      	ldr	r3, [pc, #40]	@ (80012f0 <HAL_Delay+0x44>)
 80012c8:	781b      	ldrb	r3, [r3, #0]
 80012ca:	461a      	mov	r2, r3
 80012cc:	68fb      	ldr	r3, [r7, #12]
 80012ce:	4413      	add	r3, r2
 80012d0:	60fb      	str	r3, [r7, #12]
  }

  while((HAL_GetTick() - tickstart) < wait)
 80012d2:	bf00      	nop
 80012d4:	f7ff ffde 	bl	8001294 <HAL_GetTick>
 80012d8:	4602      	mov	r2, r0
 80012da:	68bb      	ldr	r3, [r7, #8]
 80012dc:	1ad3      	subs	r3, r2, r3
 80012de:	68fa      	ldr	r2, [r7, #12]
 80012e0:	429a      	cmp	r2, r3
 80012e2:	d8f7      	bhi.n	80012d4 <HAL_Delay+0x28>
  {
  }
}
 80012e4:	bf00      	nop
 80012e6:	bf00      	nop
 80012e8:	3710      	adds	r7, #16
 80012ea:	46bd      	mov	sp, r7
 80012ec:	bd80      	pop	{r7, pc}
 80012ee:	bf00      	nop
 80012f0:	20000008 	.word	0x20000008

080012f4 <__NVIC_SetPriorityGrouping>:
           In case of a conflict between priority grouping and available
           priority bits (__NVIC_PRIO_BITS), the smallest possible priority group is set.
  \param [in]      PriorityGroup  Priority grouping field.
 */
__STATIC_INLINE void __NVIC_SetPriorityGrouping(uint32_t PriorityGroup)
{
 80012f4:	b480      	push	{r7}
 80012f6:	b085      	sub	sp, #20
 80012f8:	af00      	add	r7, sp, #0
 80012fa:	6078      	str	r0, [r7, #4]
  uint32_t reg_value;
  uint32_t PriorityGroupTmp = (PriorityGroup & (uint32_t)0x07UL);             /* only values 0..7 are used          */
 80012fc:	687b      	ldr	r3, [r7, #4]
 80012fe:	f003 0307 	and.w	r3, r3, #7
 8001302:	60fb      	str	r3, [r7, #12]

  reg_value  =  SCB->AIRCR;                                                   /* read old register configuration    */
 8001304:	4b0c      	ldr	r3, [pc, #48]	@ (8001338 <__NVIC_SetPriorityGrouping+0x44>)
 8001306:	68db      	ldr	r3, [r3, #12]
 8001308:	60bb      	str	r3, [r7, #8]
  reg_value &= ~((uint32_t)(SCB_AIRCR_VECTKEY_Msk | SCB_AIRCR_PRIGROUP_Msk)); /* clear bits to change               */
 800130a:	68ba      	ldr	r2, [r7, #8]
 800130c:	f64f 03ff 	movw	r3, #63743	@ 0xf8ff
 8001310:	4013      	ands	r3, r2
 8001312:	60bb      	str	r3, [r7, #8]
  reg_value  =  (reg_value                                   |
                ((uint32_t)0x5FAUL << SCB_AIRCR_VECTKEY_Pos) |
                (PriorityGroupTmp << SCB_AIRCR_PRIGROUP_Pos)  );              /* Insert write key and priority group */
 8001314:	68fb      	ldr	r3, [r7, #12]
 8001316:	021a      	lsls	r2, r3, #8
                ((uint32_t)0x5FAUL << SCB_AIRCR_VECTKEY_Pos) |
 8001318:	68bb      	ldr	r3, [r7, #8]
 800131a:	4313      	orrs	r3, r2
  reg_value  =  (reg_value                                   |
 800131c:	f043 63bf 	orr.w	r3, r3, #100139008	@ 0x5f80000
 8001320:	f443 3300 	orr.w	r3, r3, #131072	@ 0x20000
 8001324:	60bb      	str	r3, [r7, #8]
  SCB->AIRCR =  reg_value;
 8001326:	4a04      	ldr	r2, [pc, #16]	@ (8001338 <__NVIC_SetPriorityGrouping+0x44>)
 8001328:	68bb      	ldr	r3, [r7, #8]
 800132a:	60d3      	str	r3, [r2, #12]
}
 800132c:	bf00      	nop
 800132e:	3714      	adds	r7, #20
 8001330:	46bd      	mov	sp, r7
 8001332:	f85d 7b04 	ldr.w	r7, [sp], #4
 8001336:	4770      	bx	lr
 8001338:	e000ed00 	.word	0xe000ed00

0800133c <__NVIC_GetPriorityGrouping>:
  \brief   Get Priority Grouping
  \details Reads the priority grouping field from the NVIC Interrupt Controller.
  \return                Priority grouping field (SCB->AIRCR [10:8] PRIGROUP field).
 */
__STATIC_INLINE uint32_t __NVIC_GetPriorityGrouping(void)
{
 800133c:	b480      	push	{r7}
 800133e:	af00      	add	r7, sp, #0
  return ((uint32_t)((SCB->AIRCR & SCB_AIRCR_PRIGROUP_Msk) >> SCB_AIRCR_PRIGROUP_Pos));
 8001340:	4b04      	ldr	r3, [pc, #16]	@ (8001354 <__NVIC_GetPriorityGrouping+0x18>)
 8001342:	68db      	ldr	r3, [r3, #12]
 8001344:	0a1b      	lsrs	r3, r3, #8
 8001346:	f003 0307 	and.w	r3, r3, #7
}
 800134a:	4618      	mov	r0, r3
 800134c:	46bd      	mov	sp, r7
 800134e:	f85d 7b04 	ldr.w	r7, [sp], #4
 8001352:	4770      	bx	lr
 8001354:	e000ed00 	.word	0xe000ed00

08001358 <__NVIC_EnableIRQ>:
  \details Enables a device specific interrupt in the NVIC interrupt controller.
  \param [in]      IRQn  Device specific interrupt number.
  \note    IRQn must not be negative.
 */
__STATIC_INLINE void __NVIC_EnableIRQ(IRQn_Type IRQn)
{
 8001358:	b480      	push	{r7}
 800135a:	b083      	sub	sp, #12
 800135c:	af00      	add	r7, sp, #0
 800135e:	4603      	mov	r3, r0
 8001360:	71fb      	strb	r3, [r7, #7]
  if ((int32_t)(IRQn) >= 0)
 8001362:	f997 3007 	ldrsb.w	r3, [r7, #7]
 8001366:	2b00      	cmp	r3, #0
 8001368:	db0b      	blt.n	8001382 <__NVIC_EnableIRQ+0x2a>
  {
    __COMPILER_BARRIER();
    NVIC->ISER[(((uint32_t)IRQn) >> 5UL)] = (uint32_t)(1UL << (((uint32_t)IRQn) & 0x1FUL));
 800136a:	79fb      	ldrb	r3, [r7, #7]
 800136c:	f003 021f 	and.w	r2, r3, #31
 8001370:	4907      	ldr	r1, [pc, #28]	@ (8001390 <__NVIC_EnableIRQ+0x38>)
 8001372:	f997 3007 	ldrsb.w	r3, [r7, #7]
 8001376:	095b      	lsrs	r3, r3, #5
 8001378:	2001      	movs	r0, #1
 800137a:	fa00 f202 	lsl.w	r2, r0, r2
 800137e:	f841 2023 	str.w	r2, [r1, r3, lsl #2]
    __COMPILER_BARRIER();
  }
}
 8001382:	bf00      	nop
 8001384:	370c      	adds	r7, #12
 8001386:	46bd      	mov	sp, r7
 8001388:	f85d 7b04 	ldr.w	r7, [sp], #4
 800138c:	4770      	bx	lr
 800138e:	bf00      	nop
 8001390:	e000e100 	.word	0xe000e100

08001394 <__NVIC_SetPriority>:
  \param [in]      IRQn  Interrupt number.
  \param [in]  priority  Priority to set.
  \note    The priority cannot be set for every processor exception.
 */
__STATIC_INLINE void __NVIC_SetPriority(IRQn_Type IRQn, uint32_t priority)
{
 8001394:	b480      	push	{r7}
 8001396:	b083      	sub	sp, #12
 8001398:	af00      	add	r7, sp, #0
 800139a:	4603      	mov	r3, r0
 800139c:	6039      	str	r1, [r7, #0]
 800139e:	71fb      	strb	r3, [r7, #7]
  if ((int32_t)(IRQn) >= 0)
 80013a0:	f997 3007 	ldrsb.w	r3, [r7, #7]
 80013a4:	2b00      	cmp	r3, #0
 80013a6:	db0a      	blt.n	80013be <__NVIC_SetPriority+0x2a>
  {
    NVIC->IP[((uint32_t)IRQn)]               = (uint8_t)((priority << (8U - __NVIC_PRIO_BITS)) & (uint32_t)0xFFUL);
 80013a8:	683b      	ldr	r3, [r7, #0]
 80013aa:	b2da      	uxtb	r2, r3
 80013ac:	490c      	ldr	r1, [pc, #48]	@ (80013e0 <__NVIC_SetPriority+0x4c>)
 80013ae:	f997 3007 	ldrsb.w	r3, [r7, #7]
 80013b2:	0112      	lsls	r2, r2, #4
 80013b4:	b2d2      	uxtb	r2, r2
 80013b6:	440b      	add	r3, r1
 80013b8:	f883 2300 	strb.w	r2, [r3, #768]	@ 0x300
  }
  else
  {
    SCB->SHP[(((uint32_t)IRQn) & 0xFUL)-4UL] = (uint8_t)((priority << (8U - __NVIC_PRIO_BITS)) & (uint32_t)0xFFUL);
  }
}
 80013bc:	e00a      	b.n	80013d4 <__NVIC_SetPriority+0x40>
    SCB->SHP[(((uint32_t)IRQn) & 0xFUL)-4UL] = (uint8_t)((priority << (8U - __NVIC_PRIO_BITS)) & (uint32_t)0xFFUL);
 80013be:	683b      	ldr	r3, [r7, #0]
 80013c0:	b2da      	uxtb	r2, r3
 80013c2:	4908      	ldr	r1, [pc, #32]	@ (80013e4 <__NVIC_SetPriority+0x50>)
 80013c4:	79fb      	ldrb	r3, [r7, #7]
 80013c6:	f003 030f 	and.w	r3, r3, #15
 80013ca:	3b04      	subs	r3, #4
 80013cc:	0112      	lsls	r2, r2, #4
 80013ce:	b2d2      	uxtb	r2, r2
 80013d0:	440b      	add	r3, r1
 80013d2:	761a      	strb	r2, [r3, #24]
}
 80013d4:	bf00      	nop
 80013d6:	370c      	adds	r7, #12
 80013d8:	46bd      	mov	sp, r7
 80013da:	f85d 7b04 	ldr.w	r7, [sp], #4
 80013de:	4770      	bx	lr
 80013e0:	e000e100 	.word	0xe000e100
 80013e4:	e000ed00 	.word	0xe000ed00

080013e8 <NVIC_EncodePriority>:
  \param [in]   PreemptPriority  Preemptive priority value (starting from 0).
  \param [in]       SubPriority  Subpriority value (starting from 0).
  \return                        Encoded priority. Value can be used in the function \ref NVIC_SetPriority().
 */
__STATIC_INLINE uint32_t NVIC_EncodePriority (uint32_t PriorityGroup, uint32_t PreemptPriority, uint32_t SubPriority)
{
 80013e8:	b480      	push	{r7}
 80013ea:	b089      	sub	sp, #36	@ 0x24
 80013ec:	af00      	add	r7, sp, #0
 80013ee:	60f8      	str	r0, [r7, #12]
 80013f0:	60b9      	str	r1, [r7, #8]
 80013f2:	607a      	str	r2, [r7, #4]
  uint32_t PriorityGroupTmp = (PriorityGroup & (uint32_t)0x07UL);   /* only values 0..7 are used          */
 80013f4:	68fb      	ldr	r3, [r7, #12]
 80013f6:	f003 0307 	and.w	r3, r3, #7
 80013fa:	61fb      	str	r3, [r7, #28]
  uint32_t PreemptPriorityBits;
  uint32_t SubPriorityBits;

  PreemptPriorityBits = ((7UL - PriorityGroupTmp) > (uint32_t)(__NVIC_PRIO_BITS)) ? (uint32_t)(__NVIC_PRIO_BITS) : (uint32_t)(7UL - PriorityGroupTmp);
 80013fc:	69fb      	ldr	r3, [r7, #28]
 80013fe:	f1c3 0307 	rsb	r3, r3, #7
 8001402:	2b04      	cmp	r3, #4
 8001404:	bf28      	it	cs
 8001406:	2304      	movcs	r3, #4
 8001408:	61bb      	str	r3, [r7, #24]
  SubPriorityBits     = ((PriorityGroupTmp + (uint32_t)(__NVIC_PRIO_BITS)) < (uint32_t)7UL) ? (uint32_t)0UL : (uint32_t)((PriorityGroupTmp - 7UL) + (uint32_t)(__NVIC_PRIO_BITS));
 800140a:	69fb      	ldr	r3, [r7, #28]
 800140c:	3304      	adds	r3, #4
 800140e:	2b06      	cmp	r3, #6
 8001410:	d902      	bls.n	8001418 <NVIC_EncodePriority+0x30>
 8001412:	69fb      	ldr	r3, [r7, #28]
 8001414:	3b03      	subs	r3, #3
 8001416:	e000      	b.n	800141a <NVIC_EncodePriority+0x32>
 8001418:	2300      	movs	r3, #0
 800141a:	617b      	str	r3, [r7, #20]

  return (
           ((PreemptPriority & (uint32_t)((1UL << (PreemptPriorityBits)) - 1UL)) << SubPriorityBits) |
 800141c:	f04f 32ff 	mov.w	r2, #4294967295	@ 0xffffffff
 8001420:	69bb      	ldr	r3, [r7, #24]
 8001422:	fa02 f303 	lsl.w	r3, r2, r3
 8001426:	43da      	mvns	r2, r3
 8001428:	68bb      	ldr	r3, [r7, #8]
 800142a:	401a      	ands	r2, r3
 800142c:	697b      	ldr	r3, [r7, #20]
 800142e:	409a      	lsls	r2, r3
           ((SubPriority     & (uint32_t)((1UL << (SubPriorityBits    )) - 1UL)))
 8001430:	f04f 31ff 	mov.w	r1, #4294967295	@ 0xffffffff
 8001434:	697b      	ldr	r3, [r7, #20]
 8001436:	fa01 f303 	lsl.w	r3, r1, r3
 800143a:	43d9      	mvns	r1, r3
 800143c:	687b      	ldr	r3, [r7, #4]
 800143e:	400b      	ands	r3, r1
           ((PreemptPriority & (uint32_t)((1UL << (PreemptPriorityBits)) - 1UL)) << SubPriorityBits) |
 8001440:	4313      	orrs	r3, r2
         );
}
 8001442:	4618      	mov	r0, r3
 8001444:	3724      	adds	r7, #36	@ 0x24
 8001446:	46bd      	mov	sp, r7
 8001448:	f85d 7b04 	ldr.w	r7, [sp], #4
 800144c:	4770      	bx	lr
	...

08001450 <SysTick_Config>:
  \note    When the variable <b>__Vendor_SysTickConfig</b> is set to 1, then the
           function <b>SysTick_Config</b> is not included. In this case, the file <b><i>device</i>.h</b>
           must contain a vendor-specific implementation of this function.
 */
__STATIC_INLINE uint32_t SysTick_Config(uint32_t ticks)
{
 8001450:	b580      	push	{r7, lr}
 8001452:	b082      	sub	sp, #8
 8001454:	af00      	add	r7, sp, #0
 8001456:	6078      	str	r0, [r7, #4]
  if ((ticks - 1UL) > SysTick_LOAD_RELOAD_Msk)
 8001458:	687b      	ldr	r3, [r7, #4]
 800145a:	3b01      	subs	r3, #1
 800145c:	f1b3 7f80 	cmp.w	r3, #16777216	@ 0x1000000
 8001460:	d301      	bcc.n	8001466 <SysTick_Config+0x16>
  {
    return (1UL);                                                   /* Reload value impossible */
 8001462:	2301      	movs	r3, #1
 8001464:	e00f      	b.n	8001486 <SysTick_Config+0x36>
  }

  SysTick->LOAD  = (uint32_t)(ticks - 1UL);                         /* set reload register */
 8001466:	4a0a      	ldr	r2, [pc, #40]	@ (8001490 <SysTick_Config+0x40>)
 8001468:	687b      	ldr	r3, [r7, #4]
 800146a:	3b01      	subs	r3, #1
 800146c:	6053      	str	r3, [r2, #4]
  NVIC_SetPriority (SysTick_IRQn, (1UL << __NVIC_PRIO_BITS) - 1UL); /* set Priority for Systick Interrupt */
 800146e:	210f      	movs	r1, #15
 8001470:	f04f 30ff 	mov.w	r0, #4294967295	@ 0xffffffff
 8001474:	f7ff ff8e 	bl	8001394 <__NVIC_SetPriority>
  SysTick->VAL   = 0UL;                                             /* Load the SysTick Counter Value */
 8001478:	4b05      	ldr	r3, [pc, #20]	@ (8001490 <SysTick_Config+0x40>)
 800147a:	2200      	movs	r2, #0
 800147c:	609a      	str	r2, [r3, #8]
  SysTick->CTRL  = SysTick_CTRL_CLKSOURCE_Msk |
 800147e:	4b04      	ldr	r3, [pc, #16]	@ (8001490 <SysTick_Config+0x40>)
 8001480:	2207      	movs	r2, #7
 8001482:	601a      	str	r2, [r3, #0]
                   SysTick_CTRL_TICKINT_Msk   |
                   SysTick_CTRL_ENABLE_Msk;                         /* Enable SysTick IRQ and SysTick Timer */
  return (0UL);                                                     /* Function successful */
 8001484:	2300      	movs	r3, #0
}
 8001486:	4618      	mov	r0, r3
 8001488:	3708      	adds	r7, #8
 800148a:	46bd      	mov	sp, r7
 800148c:	bd80      	pop	{r7, pc}
 800148e:	bf00      	nop
 8001490:	e000e010 	.word	0xe000e010

08001494 <HAL_NVIC_SetPriorityGrouping>:
  * @note   When the NVIC_PriorityGroup_0 is selected, IRQ preemption is no more possible. 
  *         The pending IRQ priority will be managed only by the subpriority. 
  * @retval None
  */
void HAL_NVIC_SetPriorityGrouping(uint32_t PriorityGroup)
{
 8001494:	b580      	push	{r7, lr}
 8001496:	b082      	sub	sp, #8
 8001498:	af00      	add	r7, sp, #0
 800149a:	6078      	str	r0, [r7, #4]
  /* Check the parameters */
  assert_param(IS_NVIC_PRIORITY_GROUP(PriorityGroup));
  
  /* Set the PRIGROUP[10:8] bits according to the PriorityGroup parameter value */
  NVIC_SetPriorityGrouping(PriorityGroup);
 800149c:	6878      	ldr	r0, [r7, #4]
 800149e:	f7ff ff29 	bl	80012f4 <__NVIC_SetPriorityGrouping>
}
 80014a2:	bf00      	nop
 80014a4:	3708      	adds	r7, #8
 80014a6:	46bd      	mov	sp, r7
 80014a8:	bd80      	pop	{r7, pc}

080014aa <HAL_NVIC_SetPriority>:
  *         This parameter can be a value between 0 and 15
  *         A lower priority value indicates a higher priority.          
  * @retval None
  */
void HAL_NVIC_SetPriority(IRQn_Type IRQn, uint32_t PreemptPriority, uint32_t SubPriority)
{ 
 80014aa:	b580      	push	{r7, lr}
 80014ac:	b086      	sub	sp, #24
 80014ae:	af00      	add	r7, sp, #0
 80014b0:	4603      	mov	r3, r0
 80014b2:	60b9      	str	r1, [r7, #8]
 80014b4:	607a      	str	r2, [r7, #4]
 80014b6:	73fb      	strb	r3, [r7, #15]
  uint32_t prioritygroup = 0x00U;
 80014b8:	2300      	movs	r3, #0
 80014ba:	617b      	str	r3, [r7, #20]
  
  /* Check the parameters */
  assert_param(IS_NVIC_SUB_PRIORITY(SubPriority));
  assert_param(IS_NVIC_PREEMPTION_PRIORITY(PreemptPriority));
  
  prioritygroup = NVIC_GetPriorityGrouping();
 80014bc:	f7ff ff3e 	bl	800133c <__NVIC_GetPriorityGrouping>
 80014c0:	6178      	str	r0, [r7, #20]
  
  NVIC_SetPriority(IRQn, NVIC_EncodePriority(prioritygroup, PreemptPriority, SubPriority));
 80014c2:	687a      	ldr	r2, [r7, #4]
 80014c4:	68b9      	ldr	r1, [r7, #8]
 80014c6:	6978      	ldr	r0, [r7, #20]
 80014c8:	f7ff ff8e 	bl	80013e8 <NVIC_EncodePriority>
 80014cc:	4602      	mov	r2, r0
 80014ce:	f997 300f 	ldrsb.w	r3, [r7, #15]
 80014d2:	4611      	mov	r1, r2
 80014d4:	4618      	mov	r0, r3
 80014d6:	f7ff ff5d 	bl	8001394 <__NVIC_SetPriority>
}
 80014da:	bf00      	nop
 80014dc:	3718      	adds	r7, #24
 80014de:	46bd      	mov	sp, r7
 80014e0:	bd80      	pop	{r7, pc}

080014e2 <HAL_NVIC_EnableIRQ>:
  *         This parameter can be an enumerator of IRQn_Type enumeration
  *         (For the complete STM32 Devices IRQ Channels list, please refer to the appropriate CMSIS device file (stm32f4xxxx.h))
  * @retval None
  */
void HAL_NVIC_EnableIRQ(IRQn_Type IRQn)
{
 80014e2:	b580      	push	{r7, lr}
 80014e4:	b082      	sub	sp, #8
 80014e6:	af00      	add	r7, sp, #0
 80014e8:	4603      	mov	r3, r0
 80014ea:	71fb      	strb	r3, [r7, #7]
  /* Check the parameters */
  assert_param(IS_NVIC_DEVICE_IRQ(IRQn));
  
  /* Enable interrupt */
  NVIC_EnableIRQ(IRQn);
 80014ec:	f997 3007 	ldrsb.w	r3, [r7, #7]
 80014f0:	4618      	mov	r0, r3
 80014f2:	f7ff ff31 	bl	8001358 <__NVIC_EnableIRQ>
}
 80014f6:	bf00      	nop
 80014f8:	3708      	adds	r7, #8
 80014fa:	46bd      	mov	sp, r7
 80014fc:	bd80      	pop	{r7, pc}

080014fe <HAL_SYSTICK_Config>:
  * @param  TicksNumb Specifies the ticks Number of ticks between two interrupts.
  * @retval status:  - 0  Function succeeded.
  *                  - 1  Function failed.
  */
uint32_t HAL_SYSTICK_Config(uint32_t TicksNumb)
{
 80014fe:	b580      	push	{r7, lr}
 8001500:	b082      	sub	sp, #8
 8001502:	af00      	add	r7, sp, #0
 8001504:	6078      	str	r0, [r7, #4]
   return SysTick_Config(TicksNumb);
 8001506:	6878      	ldr	r0, [r7, #4]
 8001508:	f7ff ffa2 	bl	8001450 <SysTick_Config>
 800150c:	4603      	mov	r3, r0
}
 800150e:	4618      	mov	r0, r3
 8001510:	3708      	adds	r7, #8
 8001512:	46bd      	mov	sp, r7
 8001514:	bd80      	pop	{r7, pc}
	...

08001518 <HAL_GPIO_Init>:
  * @param  GPIO_Init pointer to a GPIO_InitTypeDef structure that contains
  *         the configuration information for the specified GPIO peripheral.
  * @retval None
  */
void HAL_GPIO_Init(GPIO_TypeDef  *GPIOx, GPIO_InitTypeDef *GPIO_Init)
{
 8001518:	b480      	push	{r7}
 800151a:	b089      	sub	sp, #36	@ 0x24
 800151c:	af00      	add	r7, sp, #0
 800151e:	6078      	str	r0, [r7, #4]
 8001520:	6039      	str	r1, [r7, #0]
  uint32_t position;
  uint32_t ioposition = 0x00U;
 8001522:	2300      	movs	r3, #0
 8001524:	617b      	str	r3, [r7, #20]
  uint32_t iocurrent = 0x00U;
 8001526:	2300      	movs	r3, #0
 8001528:	613b      	str	r3, [r7, #16]
  uint32_t temp = 0x00U;
 800152a:	2300      	movs	r3, #0
 800152c:	61bb      	str	r3, [r7, #24]
  assert_param(IS_GPIO_ALL_INSTANCE(GPIOx));
  assert_param(IS_GPIO_PIN(GPIO_Init->Pin));
  assert_param(IS_GPIO_MODE(GPIO_Init->Mode));

  /* Configure the port pins */
  for(position = 0U; position < GPIO_NUMBER; position++)
 800152e:	2300      	movs	r3, #0
 8001530:	61fb      	str	r3, [r7, #28]
 8001532:	e165      	b.n	8001800 <HAL_GPIO_Init+0x2e8>
  {
    /* Get the IO position */
    ioposition = 0x01U << position;
 8001534:	2201      	movs	r2, #1
 8001536:	69fb      	ldr	r3, [r7, #28]
 8001538:	fa02 f303 	lsl.w	r3, r2, r3
 800153c:	617b      	str	r3, [r7, #20]
    /* Get the current IO position */
    iocurrent = (uint32_t)(GPIO_Init->Pin) & ioposition;
 800153e:	683b      	ldr	r3, [r7, #0]
 8001540:	681b      	ldr	r3, [r3, #0]
 8001542:	697a      	ldr	r2, [r7, #20]
 8001544:	4013      	ands	r3, r2
 8001546:	613b      	str	r3, [r7, #16]

    if(iocurrent == ioposition)
 8001548:	693a      	ldr	r2, [r7, #16]
 800154a:	697b      	ldr	r3, [r7, #20]
 800154c:	429a      	cmp	r2, r3
 800154e:	f040 8154 	bne.w	80017fa <HAL_GPIO_Init+0x2e2>
    {
      /*--------------------- GPIO Mode Configuration ------------------------*/
      /* In case of Output or Alternate function mode selection */
      if(((GPIO_Init->Mode & GPIO_MODE) == MODE_OUTPUT) || \
 8001552:	683b      	ldr	r3, [r7, #0]
 8001554:	685b      	ldr	r3, [r3, #4]
 8001556:	f003 0303 	and.w	r3, r3, #3
 800155a:	2b01      	cmp	r3, #1
 800155c:	d005      	beq.n	800156a <HAL_GPIO_Init+0x52>
          (GPIO_Init->Mode & GPIO_MODE) == MODE_AF)
 800155e:	683b      	ldr	r3, [r7, #0]
 8001560:	685b      	ldr	r3, [r3, #4]
 8001562:	f003 0303 	and.w	r3, r3, #3
      if(((GPIO_Init->Mode & GPIO_MODE) == MODE_OUTPUT) || \
 8001566:	2b02      	cmp	r3, #2
 8001568:	d130      	bne.n	80015cc <HAL_GPIO_Init+0xb4>
      {
        /* Check the Speed parameter */
        assert_param(IS_GPIO_SPEED(GPIO_Init->Speed));
        /* Configure the IO Speed */
        temp = GPIOx->OSPEEDR; 
 800156a:	687b      	ldr	r3, [r7, #4]
 800156c:	689b      	ldr	r3, [r3, #8]
 800156e:	61bb      	str	r3, [r7, #24]
        temp &= ~(GPIO_OSPEEDER_OSPEEDR0 << (position * 2U));
 8001570:	69fb      	ldr	r3, [r7, #28]
 8001572:	005b      	lsls	r3, r3, #1
 8001574:	2203      	movs	r2, #3
 8001576:	fa02 f303 	lsl.w	r3, r2, r3
 800157a:	43db      	mvns	r3, r3
 800157c:	69ba      	ldr	r2, [r7, #24]
 800157e:	4013      	ands	r3, r2
 8001580:	61bb      	str	r3, [r7, #24]
        temp |= (GPIO_Init->Speed << (position * 2U));
 8001582:	683b      	ldr	r3, [r7, #0]
 8001584:	68da      	ldr	r2, [r3, #12]
 8001586:	69fb      	ldr	r3, [r7, #28]
 8001588:	005b      	lsls	r3, r3, #1
 800158a:	fa02 f303 	lsl.w	r3, r2, r3
 800158e:	69ba      	ldr	r2, [r7, #24]
 8001590:	4313      	orrs	r3, r2
 8001592:	61bb      	str	r3, [r7, #24]
        GPIOx->OSPEEDR = temp;
 8001594:	687b      	ldr	r3, [r7, #4]
 8001596:	69ba      	ldr	r2, [r7, #24]
 8001598:	609a      	str	r2, [r3, #8]

        /* Configure the IO Output Type */
        temp = GPIOx->OTYPER;
 800159a:	687b      	ldr	r3, [r7, #4]
 800159c:	685b      	ldr	r3, [r3, #4]
 800159e:	61bb      	str	r3, [r7, #24]
        temp &= ~(GPIO_OTYPER_OT_0 << position) ;
 80015a0:	2201      	movs	r2, #1
 80015a2:	69fb      	ldr	r3, [r7, #28]
 80015a4:	fa02 f303 	lsl.w	r3, r2, r3
 80015a8:	43db      	mvns	r3, r3
 80015aa:	69ba      	ldr	r2, [r7, #24]
 80015ac:	4013      	ands	r3, r2
 80015ae:	61bb      	str	r3, [r7, #24]
        temp |= (((GPIO_Init->Mode & OUTPUT_TYPE) >> OUTPUT_TYPE_Pos) << position);
 80015b0:	683b      	ldr	r3, [r7, #0]
 80015b2:	685b      	ldr	r3, [r3, #4]
 80015b4:	091b      	lsrs	r3, r3, #4
 80015b6:	f003 0201 	and.w	r2, r3, #1
 80015ba:	69fb      	ldr	r3, [r7, #28]
 80015bc:	fa02 f303 	lsl.w	r3, r2, r3
 80015c0:	69ba      	ldr	r2, [r7, #24]
 80015c2:	4313      	orrs	r3, r2
 80015c4:	61bb      	str	r3, [r7, #24]
        GPIOx->OTYPER = temp;
 80015c6:	687b      	ldr	r3, [r7, #4]
 80015c8:	69ba      	ldr	r2, [r7, #24]
 80015ca:	605a      	str	r2, [r3, #4]
       }

      if((GPIO_Init->Mode & GPIO_MODE) != MODE_ANALOG)
 80015cc:	683b      	ldr	r3, [r7, #0]
 80015ce:	685b      	ldr	r3, [r3, #4]
 80015d0:	f003 0303 	and.w	r3, r3, #3
 80015d4:	2b03      	cmp	r3, #3
 80015d6:	d017      	beq.n	8001608 <HAL_GPIO_Init+0xf0>
      {
        /* Check the parameters */
        assert_param(IS_GPIO_PULL(GPIO_Init->Pull));
        
        /* Activate the Pull-up or Pull down resistor for the current IO */
        temp = GPIOx->PUPDR;
 80015d8:	687b      	ldr	r3, [r7, #4]
 80015da:	68db      	ldr	r3, [r3, #12]
 80015dc:	61bb      	str	r3, [r7, #24]
        temp &= ~(GPIO_PUPDR_PUPDR0 << (position * 2U));
 80015de:	69fb      	ldr	r3, [r7, #28]
 80015e0:	005b      	lsls	r3, r3, #1
 80015e2:	2203      	movs	r2, #3
 80015e4:	fa02 f303 	lsl.w	r3, r2, r3
 80015e8:	43db      	mvns	r3, r3
 80015ea:	69ba      	ldr	r2, [r7, #24]
 80015ec:	4013      	ands	r3, r2
 80015ee:	61bb      	str	r3, [r7, #24]
        temp |= ((GPIO_Init->Pull) << (position * 2U));
 80015f0:	683b      	ldr	r3, [r7, #0]
 80015f2:	689a      	ldr	r2, [r3, #8]
 80015f4:	69fb      	ldr	r3, [r7, #28]
 80015f6:	005b      	lsls	r3, r3, #1
 80015f8:	fa02 f303 	lsl.w	r3, r2, r3
 80015fc:	69ba      	ldr	r2, [r7, #24]
 80015fe:	4313      	orrs	r3, r2
 8001600:	61bb      	str	r3, [r7, #24]
        GPIOx->PUPDR = temp;
 8001602:	687b      	ldr	r3, [r7, #4]
 8001604:	69ba      	ldr	r2, [r7, #24]
 8001606:	60da      	str	r2, [r3, #12]
      }

      /* In case of Alternate function mode selection */
      if((GPIO_Init->Mode & GPIO_MODE) == MODE_AF)
 8001608:	683b      	ldr	r3, [r7, #0]
 800160a:	685b      	ldr	r3, [r3, #4]
 800160c:	f003 0303 	and.w	r3, r3, #3
 8001610:	2b02      	cmp	r3, #2
 8001612:	d123      	bne.n	800165c <HAL_GPIO_Init+0x144>
      {
        /* Check the Alternate function parameter */
        assert_param(IS_GPIO_AF(GPIO_Init->Alternate));
        /* Configure Alternate function mapped with the current IO */
        temp = GPIOx->AFR[position >> 3U];
 8001614:	69fb      	ldr	r3, [r7, #28]
 8001616:	08da      	lsrs	r2, r3, #3
 8001618:	687b      	ldr	r3, [r7, #4]
 800161a:	3208      	adds	r2, #8
 800161c:	f853 3022 	ldr.w	r3, [r3, r2, lsl #2]
 8001620:	61bb      	str	r3, [r7, #24]
        temp &= ~(0xFU << ((uint32_t)(position & 0x07U) * 4U)) ;
 8001622:	69fb      	ldr	r3, [r7, #28]
 8001624:	f003 0307 	and.w	r3, r3, #7
 8001628:	009b      	lsls	r3, r3, #2
 800162a:	220f      	movs	r2, #15
 800162c:	fa02 f303 	lsl.w	r3, r2, r3
 8001630:	43db      	mvns	r3, r3
 8001632:	69ba      	ldr	r2, [r7, #24]
 8001634:	4013      	ands	r3, r2
 8001636:	61bb      	str	r3, [r7, #24]
        temp |= ((uint32_t)(GPIO_Init->Alternate) << (((uint32_t)position & 0x07U) * 4U));
 8001638:	683b      	ldr	r3, [r7, #0]
 800163a:	691a      	ldr	r2, [r3, #16]
 800163c:	69fb      	ldr	r3, [r7, #28]
 800163e:	f003 0307 	and.w	r3, r3, #7
 8001642:	009b      	lsls	r3, r3, #2
 8001644:	fa02 f303 	lsl.w	r3, r2, r3
 8001648:	69ba      	ldr	r2, [r7, #24]
 800164a:	4313      	orrs	r3, r2
 800164c:	61bb      	str	r3, [r7, #24]
        GPIOx->AFR[position >> 3U] = temp;
 800164e:	69fb      	ldr	r3, [r7, #28]
 8001650:	08da      	lsrs	r2, r3, #3
 8001652:	687b      	ldr	r3, [r7, #4]
 8001654:	3208      	adds	r2, #8
 8001656:	69b9      	ldr	r1, [r7, #24]
 8001658:	f843 1022 	str.w	r1, [r3, r2, lsl #2]
      }

      /* Configure IO Direction mode (Input, Output, Alternate or Analog) */
      temp = GPIOx->MODER;
 800165c:	687b      	ldr	r3, [r7, #4]
 800165e:	681b      	ldr	r3, [r3, #0]
 8001660:	61bb      	str	r3, [r7, #24]
      temp &= ~(GPIO_MODER_MODER0 << (position * 2U));
 8001662:	69fb      	ldr	r3, [r7, #28]
 8001664:	005b      	lsls	r3, r3, #1
 8001666:	2203      	movs	r2, #3
 8001668:	fa02 f303 	lsl.w	r3, r2, r3
 800166c:	43db      	mvns	r3, r3
 800166e:	69ba      	ldr	r2, [r7, #24]
 8001670:	4013      	ands	r3, r2
 8001672:	61bb      	str	r3, [r7, #24]
      temp |= ((GPIO_Init->Mode & GPIO_MODE) << (position * 2U));
 8001674:	683b      	ldr	r3, [r7, #0]
 8001676:	685b      	ldr	r3, [r3, #4]
 8001678:	f003 0203 	and.w	r2, r3, #3
 800167c:	69fb      	ldr	r3, [r7, #28]
 800167e:	005b      	lsls	r3, r3, #1
 8001680:	fa02 f303 	lsl.w	r3, r2, r3
 8001684:	69ba      	ldr	r2, [r7, #24]
 8001686:	4313      	orrs	r3, r2
 8001688:	61bb      	str	r3, [r7, #24]
      GPIOx->MODER = temp;
 800168a:	687b      	ldr	r3, [r7, #4]
 800168c:	69ba      	ldr	r2, [r7, #24]
 800168e:	601a      	str	r2, [r3, #0]

      /*--------------------- EXTI Mode Configuration ------------------------*/
      /* Configure the External Interrupt or event for the current IO */
      if((GPIO_Init->Mode & EXTI_MODE) != 0x00U)
 8001690:	683b      	ldr	r3, [r7, #0]
 8001692:	685b      	ldr	r3, [r3, #4]
 8001694:	f403 3340 	and.w	r3, r3, #196608	@ 0x30000
 8001698:	2b00      	cmp	r3, #0
 800169a:	f000 80ae 	beq.w	80017fa <HAL_GPIO_Init+0x2e2>
      {
        /* Enable SYSCFG Clock */
        __HAL_RCC_SYSCFG_CLK_ENABLE();
 800169e:	2300      	movs	r3, #0
 80016a0:	60fb      	str	r3, [r7, #12]
 80016a2:	4b5d      	ldr	r3, [pc, #372]	@ (8001818 <HAL_GPIO_Init+0x300>)
 80016a4:	6c5b      	ldr	r3, [r3, #68]	@ 0x44
 80016a6:	4a5c      	ldr	r2, [pc, #368]	@ (8001818 <HAL_GPIO_Init+0x300>)
 80016a8:	f443 4380 	orr.w	r3, r3, #16384	@ 0x4000
 80016ac:	6453      	str	r3, [r2, #68]	@ 0x44
 80016ae:	4b5a      	ldr	r3, [pc, #360]	@ (8001818 <HAL_GPIO_Init+0x300>)
 80016b0:	6c5b      	ldr	r3, [r3, #68]	@ 0x44
 80016b2:	f403 4380 	and.w	r3, r3, #16384	@ 0x4000
 80016b6:	60fb      	str	r3, [r7, #12]
 80016b8:	68fb      	ldr	r3, [r7, #12]

        temp = SYSCFG->EXTICR[position >> 2U];
 80016ba:	4a58      	ldr	r2, [pc, #352]	@ (800181c <HAL_GPIO_Init+0x304>)
 80016bc:	69fb      	ldr	r3, [r7, #28]
 80016be:	089b      	lsrs	r3, r3, #2
 80016c0:	3302      	adds	r3, #2
 80016c2:	f852 3023 	ldr.w	r3, [r2, r3, lsl #2]
 80016c6:	61bb      	str	r3, [r7, #24]
        temp &= ~(0x0FU << (4U * (position & 0x03U)));
 80016c8:	69fb      	ldr	r3, [r7, #28]
 80016ca:	f003 0303 	and.w	r3, r3, #3
 80016ce:	009b      	lsls	r3, r3, #2
 80016d0:	220f      	movs	r2, #15
 80016d2:	fa02 f303 	lsl.w	r3, r2, r3
 80016d6:	43db      	mvns	r3, r3
 80016d8:	69ba      	ldr	r2, [r7, #24]
 80016da:	4013      	ands	r3, r2
 80016dc:	61bb      	str	r3, [r7, #24]
        temp |= ((uint32_t)(GPIO_GET_INDEX(GPIOx)) << (4U * (position & 0x03U)));
 80016de:	687b      	ldr	r3, [r7, #4]
 80016e0:	4a4f      	ldr	r2, [pc, #316]	@ (8001820 <HAL_GPIO_Init+0x308>)
 80016e2:	4293      	cmp	r3, r2
 80016e4:	d025      	beq.n	8001732 <HAL_GPIO_Init+0x21a>
 80016e6:	687b      	ldr	r3, [r7, #4]
 80016e8:	4a4e      	ldr	r2, [pc, #312]	@ (8001824 <HAL_GPIO_Init+0x30c>)
 80016ea:	4293      	cmp	r3, r2
 80016ec:	d01f      	beq.n	800172e <HAL_GPIO_Init+0x216>
 80016ee:	687b      	ldr	r3, [r7, #4]
 80016f0:	4a4d      	ldr	r2, [pc, #308]	@ (8001828 <HAL_GPIO_Init+0x310>)
 80016f2:	4293      	cmp	r3, r2
 80016f4:	d019      	beq.n	800172a <HAL_GPIO_Init+0x212>
 80016f6:	687b      	ldr	r3, [r7, #4]
 80016f8:	4a4c      	ldr	r2, [pc, #304]	@ (800182c <HAL_GPIO_Init+0x314>)
 80016fa:	4293      	cmp	r3, r2
 80016fc:	d013      	beq.n	8001726 <HAL_GPIO_Init+0x20e>
 80016fe:	687b      	ldr	r3, [r7, #4]
 8001700:	4a4b      	ldr	r2, [pc, #300]	@ (8001830 <HAL_GPIO_Init+0x318>)
 8001702:	4293      	cmp	r3, r2
 8001704:	d00d      	beq.n	8001722 <HAL_GPIO_Init+0x20a>
 8001706:	687b      	ldr	r3, [r7, #4]
 8001708:	4a4a      	ldr	r2, [pc, #296]	@ (8001834 <HAL_GPIO_Init+0x31c>)
 800170a:	4293      	cmp	r3, r2
 800170c:	d007      	beq.n	800171e <HAL_GPIO_Init+0x206>
 800170e:	687b      	ldr	r3, [r7, #4]
 8001710:	4a49      	ldr	r2, [pc, #292]	@ (8001838 <HAL_GPIO_Init+0x320>)
 8001712:	4293      	cmp	r3, r2
 8001714:	d101      	bne.n	800171a <HAL_GPIO_Init+0x202>
 8001716:	2306      	movs	r3, #6
 8001718:	e00c      	b.n	8001734 <HAL_GPIO_Init+0x21c>
 800171a:	2307      	movs	r3, #7
 800171c:	e00a      	b.n	8001734 <HAL_GPIO_Init+0x21c>
 800171e:	2305      	movs	r3, #5
 8001720:	e008      	b.n	8001734 <HAL_GPIO_Init+0x21c>
 8001722:	2304      	movs	r3, #4
 8001724:	e006      	b.n	8001734 <HAL_GPIO_Init+0x21c>
 8001726:	2303      	movs	r3, #3
 8001728:	e004      	b.n	8001734 <HAL_GPIO_Init+0x21c>
 800172a:	2302      	movs	r3, #2
 800172c:	e002      	b.n	8001734 <HAL_GPIO_Init+0x21c>
 800172e:	2301      	movs	r3, #1
 8001730:	e000      	b.n	8001734 <HAL_GPIO_Init+0x21c>
 8001732:	2300      	movs	r3, #0
 8001734:	69fa      	ldr	r2, [r7, #28]
 8001736:	f002 0203 	and.w	r2, r2, #3
 800173a:	0092      	lsls	r2, r2, #2
 800173c:	4093      	lsls	r3, r2
 800173e:	69ba      	ldr	r2, [r7, #24]
 8001740:	4313      	orrs	r3, r2
 8001742:	61bb      	str	r3, [r7, #24]
        SYSCFG->EXTICR[position >> 2U] = temp;
 8001744:	4935      	ldr	r1, [pc, #212]	@ (800181c <HAL_GPIO_Init+0x304>)
 8001746:	69fb      	ldr	r3, [r7, #28]
 8001748:	089b      	lsrs	r3, r3, #2
 800174a:	3302      	adds	r3, #2
 800174c:	69ba      	ldr	r2, [r7, #24]
 800174e:	f841 2023 	str.w	r2, [r1, r3, lsl #2]

        /* Clear Rising Falling edge configuration */
        temp = EXTI->RTSR;
 8001752:	4b3a      	ldr	r3, [pc, #232]	@ (800183c <HAL_GPIO_Init+0x324>)
 8001754:	689b      	ldr	r3, [r3, #8]
 8001756:	61bb      	str	r3, [r7, #24]
        temp &= ~((uint32_t)iocurrent);
 8001758:	693b      	ldr	r3, [r7, #16]
 800175a:	43db      	mvns	r3, r3
 800175c:	69ba      	ldr	r2, [r7, #24]
 800175e:	4013      	ands	r3, r2
 8001760:	61bb      	str	r3, [r7, #24]
        if((GPIO_Init->Mode & TRIGGER_RISING) != 0x00U)
 8001762:	683b      	ldr	r3, [r7, #0]
 8001764:	685b      	ldr	r3, [r3, #4]
 8001766:	f403 1380 	and.w	r3, r3, #1048576	@ 0x100000
 800176a:	2b00      	cmp	r3, #0
 800176c:	d003      	beq.n	8001776 <HAL_GPIO_Init+0x25e>
        {
          temp |= iocurrent;
 800176e:	69ba      	ldr	r2, [r7, #24]
 8001770:	693b      	ldr	r3, [r7, #16]
 8001772:	4313      	orrs	r3, r2
 8001774:	61bb      	str	r3, [r7, #24]
        }
        EXTI->RTSR = temp;
 8001776:	4a31      	ldr	r2, [pc, #196]	@ (800183c <HAL_GPIO_Init+0x324>)
 8001778:	69bb      	ldr	r3, [r7, #24]
 800177a:	6093      	str	r3, [r2, #8]

        temp = EXTI->FTSR;
 800177c:	4b2f      	ldr	r3, [pc, #188]	@ (800183c <HAL_GPIO_Init+0x324>)
 800177e:	68db      	ldr	r3, [r3, #12]
 8001780:	61bb      	str	r3, [r7, #24]
        temp &= ~((uint32_t)iocurrent);
 8001782:	693b      	ldr	r3, [r7, #16]
 8001784:	43db      	mvns	r3, r3
 8001786:	69ba      	ldr	r2, [r7, #24]
 8001788:	4013      	ands	r3, r2
 800178a:	61bb      	str	r3, [r7, #24]
        if((GPIO_Init->Mode & TRIGGER_FALLING) != 0x00U)
 800178c:	683b      	ldr	r3, [r7, #0]
 800178e:	685b      	ldr	r3, [r3, #4]
 8001790:	f403 1300 	and.w	r3, r3, #2097152	@ 0x200000
 8001794:	2b00      	cmp	r3, #0
 8001796:	d003      	beq.n	80017a0 <HAL_GPIO_Init+0x288>
        {
          temp |= iocurrent;
 8001798:	69ba      	ldr	r2, [r7, #24]
 800179a:	693b      	ldr	r3, [r7, #16]
 800179c:	4313      	orrs	r3, r2
 800179e:	61bb      	str	r3, [r7, #24]
        }
        EXTI->FTSR = temp;
 80017a0:	4a26      	ldr	r2, [pc, #152]	@ (800183c <HAL_GPIO_Init+0x324>)
 80017a2:	69bb      	ldr	r3, [r7, #24]
 80017a4:	60d3      	str	r3, [r2, #12]

        temp = EXTI->EMR;
 80017a6:	4b25      	ldr	r3, [pc, #148]	@ (800183c <HAL_GPIO_Init+0x324>)
 80017a8:	685b      	ldr	r3, [r3, #4]
 80017aa:	61bb      	str	r3, [r7, #24]
        temp &= ~((uint32_t)iocurrent);
 80017ac:	693b      	ldr	r3, [r7, #16]
 80017ae:	43db      	mvns	r3, r3
 80017b0:	69ba      	ldr	r2, [r7, #24]
 80017b2:	4013      	ands	r3, r2
 80017b4:	61bb      	str	r3, [r7, #24]
        if((GPIO_Init->Mode & EXTI_EVT) != 0x00U)
 80017b6:	683b      	ldr	r3, [r7, #0]
 80017b8:	685b      	ldr	r3, [r3, #4]
 80017ba:	f403 3300 	and.w	r3, r3, #131072	@ 0x20000
 80017be:	2b00      	cmp	r3, #0
 80017c0:	d003      	beq.n	80017ca <HAL_GPIO_Init+0x2b2>
        {
          temp |= iocurrent;
 80017c2:	69ba      	ldr	r2, [r7, #24]
 80017c4:	693b      	ldr	r3, [r7, #16]
 80017c6:	4313      	orrs	r3, r2
 80017c8:	61bb      	str	r3, [r7, #24]
        }
        EXTI->EMR = temp;
 80017ca:	4a1c      	ldr	r2, [pc, #112]	@ (800183c <HAL_GPIO_Init+0x324>)
 80017cc:	69bb      	ldr	r3, [r7, #24]
 80017ce:	6053      	str	r3, [r2, #4]

        /* Clear EXTI line configuration */
        temp = EXTI->IMR;
 80017d0:	4b1a      	ldr	r3, [pc, #104]	@ (800183c <HAL_GPIO_Init+0x324>)
 80017d2:	681b      	ldr	r3, [r3, #0]
 80017d4:	61bb      	str	r3, [r7, #24]
        temp &= ~((uint32_t)iocurrent);
 80017d6:	693b      	ldr	r3, [r7, #16]
 80017d8:	43db      	mvns	r3, r3
 80017da:	69ba      	ldr	r2, [r7, #24]
 80017dc:	4013      	ands	r3, r2
 80017de:	61bb      	str	r3, [r7, #24]
        if((GPIO_Init->Mode & EXTI_IT) != 0x00U)
 80017e0:	683b      	ldr	r3, [r7, #0]
 80017e2:	685b      	ldr	r3, [r3, #4]
 80017e4:	f403 3380 	and.w	r3, r3, #65536	@ 0x10000
 80017e8:	2b00      	cmp	r3, #0
 80017ea:	d003      	beq.n	80017f4 <HAL_GPIO_Init+0x2dc>
        {
          temp |= iocurrent;
 80017ec:	69ba      	ldr	r2, [r7, #24]
 80017ee:	693b      	ldr	r3, [r7, #16]
 80017f0:	4313      	orrs	r3, r2
 80017f2:	61bb      	str	r3, [r7, #24]
        }
        EXTI->IMR = temp;
 80017f4:	4a11      	ldr	r2, [pc, #68]	@ (800183c <HAL_GPIO_Init+0x324>)
 80017f6:	69bb      	ldr	r3, [r7, #24]
 80017f8:	6013      	str	r3, [r2, #0]
  for(position = 0U; position < GPIO_NUMBER; position++)
 80017fa:	69fb      	ldr	r3, [r7, #28]
 80017fc:	3301      	adds	r3, #1
 80017fe:	61fb      	str	r3, [r7, #28]
 8001800:	69fb      	ldr	r3, [r7, #28]
 8001802:	2b0f      	cmp	r3, #15
 8001804:	f67f ae96 	bls.w	8001534 <HAL_GPIO_Init+0x1c>
      }
    }
  }
}
 8001808:	bf00      	nop
 800180a:	bf00      	nop
 800180c:	3724      	adds	r7, #36	@ 0x24
 800180e:	46bd      	mov	sp, r7
 8001810:	f85d 7b04 	ldr.w	r7, [sp], #4
 8001814:	4770      	bx	lr
 8001816:	bf00      	nop
 8001818:	40023800 	.word	0x40023800
 800181c:	40013800 	.word	0x40013800
 8001820:	40020000 	.word	0x40020000
 8001824:	40020400 	.word	0x40020400
 8001828:	40020800 	.word	0x40020800
 800182c:	40020c00 	.word	0x40020c00
 8001830:	40021000 	.word	0x40021000
 8001834:	40021400 	.word	0x40021400
 8001838:	40021800 	.word	0x40021800
 800183c:	40013c00 	.word	0x40013c00

08001840 <HAL_GPIO_WritePin>:
  *            @arg GPIO_PIN_RESET: to clear the port pin
  *            @arg GPIO_PIN_SET: to set the port pin
  * @retval None
  */
void HAL_GPIO_WritePin(GPIO_TypeDef* GPIOx, uint16_t GPIO_Pin, GPIO_PinState PinState)
{
 8001840:	b480      	push	{r7}
 8001842:	b083      	sub	sp, #12
 8001844:	af00      	add	r7, sp, #0
 8001846:	6078      	str	r0, [r7, #4]
 8001848:	460b      	mov	r3, r1
 800184a:	807b      	strh	r3, [r7, #2]
 800184c:	4613      	mov	r3, r2
 800184e:	707b      	strb	r3, [r7, #1]
  /* Check the parameters */
  assert_param(IS_GPIO_PIN(GPIO_Pin));
  assert_param(IS_GPIO_PIN_ACTION(PinState));

  if(PinState != GPIO_PIN_RESET)
 8001850:	787b      	ldrb	r3, [r7, #1]
 8001852:	2b00      	cmp	r3, #0
 8001854:	d003      	beq.n	800185e <HAL_GPIO_WritePin+0x1e>
  {
    GPIOx->BSRR = GPIO_Pin;
 8001856:	887a      	ldrh	r2, [r7, #2]
 8001858:	687b      	ldr	r3, [r7, #4]
 800185a:	619a      	str	r2, [r3, #24]
  }
  else
  {
    GPIOx->BSRR = (uint32_t)GPIO_Pin << 16U;
  }
}
 800185c:	e003      	b.n	8001866 <HAL_GPIO_WritePin+0x26>
    GPIOx->BSRR = (uint32_t)GPIO_Pin << 16U;
 800185e:	887b      	ldrh	r3, [r7, #2]
 8001860:	041a      	lsls	r2, r3, #16
 8001862:	687b      	ldr	r3, [r7, #4]
 8001864:	619a      	str	r2, [r3, #24]
}
 8001866:	bf00      	nop
 8001868:	370c      	adds	r7, #12
 800186a:	46bd      	mov	sp, r7
 800186c:	f85d 7b04 	ldr.w	r7, [sp], #4
 8001870:	4770      	bx	lr
	...

08001874 <HAL_PWREx_EnableOverDrive>:
  *         During the Over-drive switch activation, no peripheral clocks should be enabled.   
  *         The peripheral clocks must be enabled once the Over-drive mode is activated.   
  * @retval HAL status
  */
HAL_StatusTypeDef HAL_PWREx_EnableOverDrive(void)
{
 8001874:	b580      	push	{r7, lr}
 8001876:	b082      	sub	sp, #8
 8001878:	af00      	add	r7, sp, #0
  uint32_t tickstart = 0U;
 800187a:	2300      	movs	r3, #0
 800187c:	607b      	str	r3, [r7, #4]

  __HAL_RCC_PWR_CLK_ENABLE();
 800187e:	2300      	movs	r3, #0
 8001880:	603b      	str	r3, [r7, #0]
 8001882:	4b20      	ldr	r3, [pc, #128]	@ (8001904 <HAL_PWREx_EnableOverDrive+0x90>)
 8001884:	6c1b      	ldr	r3, [r3, #64]	@ 0x40
 8001886:	4a1f      	ldr	r2, [pc, #124]	@ (8001904 <HAL_PWREx_EnableOverDrive+0x90>)
 8001888:	f043 5380 	orr.w	r3, r3, #268435456	@ 0x10000000
 800188c:	6413      	str	r3, [r2, #64]	@ 0x40
 800188e:	4b1d      	ldr	r3, [pc, #116]	@ (8001904 <HAL_PWREx_EnableOverDrive+0x90>)
 8001890:	6c1b      	ldr	r3, [r3, #64]	@ 0x40
 8001892:	f003 5380 	and.w	r3, r3, #268435456	@ 0x10000000
 8001896:	603b      	str	r3, [r7, #0]
 8001898:	683b      	ldr	r3, [r7, #0]
  
  /* Enable the Over-drive to extend the clock frequency to 180 Mhz */
  __HAL_PWR_OVERDRIVE_ENABLE();
 800189a:	4b1b      	ldr	r3, [pc, #108]	@ (8001908 <HAL_PWREx_EnableOverDrive+0x94>)
 800189c:	2201      	movs	r2, #1
 800189e:	601a      	str	r2, [r3, #0]

  /* Get tick */
  tickstart = HAL_GetTick();
 80018a0:	f7ff fcf8 	bl	8001294 <HAL_GetTick>
 80018a4:	6078      	str	r0, [r7, #4]

  while(!__HAL_PWR_GET_FLAG(PWR_FLAG_ODRDY))
 80018a6:	e009      	b.n	80018bc <HAL_PWREx_EnableOverDrive+0x48>
  {
    if((HAL_GetTick() - tickstart) > PWR_OVERDRIVE_TIMEOUT_VALUE)
 80018a8:	f7ff fcf4 	bl	8001294 <HAL_GetTick>
 80018ac:	4602      	mov	r2, r0
 80018ae:	687b      	ldr	r3, [r7, #4]
 80018b0:	1ad3      	subs	r3, r2, r3
 80018b2:	f5b3 7f7a 	cmp.w	r3, #1000	@ 0x3e8
 80018b6:	d901      	bls.n	80018bc <HAL_PWREx_EnableOverDrive+0x48>
    {
      return HAL_TIMEOUT;
 80018b8:	2303      	movs	r3, #3
 80018ba:	e01f      	b.n	80018fc <HAL_PWREx_EnableOverDrive+0x88>
  while(!__HAL_PWR_GET_FLAG(PWR_FLAG_ODRDY))
 80018bc:	4b13      	ldr	r3, [pc, #76]	@ (800190c <HAL_PWREx_EnableOverDrive+0x98>)
 80018be:	685b      	ldr	r3, [r3, #4]
 80018c0:	f403 3380 	and.w	r3, r3, #65536	@ 0x10000
 80018c4:	f5b3 3f80 	cmp.w	r3, #65536	@ 0x10000
 80018c8:	d1ee      	bne.n	80018a8 <HAL_PWREx_EnableOverDrive+0x34>
    }
  }
  
  /* Enable the Over-drive switch */
  __HAL_PWR_OVERDRIVESWITCHING_ENABLE();
 80018ca:	4b11      	ldr	r3, [pc, #68]	@ (8001910 <HAL_PWREx_EnableOverDrive+0x9c>)
 80018cc:	2201      	movs	r2, #1
 80018ce:	601a      	str	r2, [r3, #0]

  /* Get tick */
  tickstart = HAL_GetTick();
 80018d0:	f7ff fce0 	bl	8001294 <HAL_GetTick>
 80018d4:	6078      	str	r0, [r7, #4]

  while(!__HAL_PWR_GET_FLAG(PWR_FLAG_ODSWRDY))
 80018d6:	e009      	b.n	80018ec <HAL_PWREx_EnableOverDrive+0x78>
  {
    if((HAL_GetTick() - tickstart ) > PWR_OVERDRIVE_TIMEOUT_VALUE)
 80018d8:	f7ff fcdc 	bl	8001294 <HAL_GetTick>
 80018dc:	4602      	mov	r2, r0
 80018de:	687b      	ldr	r3, [r7, #4]
 80018e0:	1ad3      	subs	r3, r2, r3
 80018e2:	f5b3 7f7a 	cmp.w	r3, #1000	@ 0x3e8
 80018e6:	d901      	bls.n	80018ec <HAL_PWREx_EnableOverDrive+0x78>
    {
      return HAL_TIMEOUT;
 80018e8:	2303      	movs	r3, #3
 80018ea:	e007      	b.n	80018fc <HAL_PWREx_EnableOverDrive+0x88>
  while(!__HAL_PWR_GET_FLAG(PWR_FLAG_ODSWRDY))
 80018ec:	4b07      	ldr	r3, [pc, #28]	@ (800190c <HAL_PWREx_EnableOverDrive+0x98>)
 80018ee:	685b      	ldr	r3, [r3, #4]
 80018f0:	f403 3300 	and.w	r3, r3, #131072	@ 0x20000
 80018f4:	f5b3 3f00 	cmp.w	r3, #131072	@ 0x20000
 80018f8:	d1ee      	bne.n	80018d8 <HAL_PWREx_EnableOverDrive+0x64>
    }
  } 
  return HAL_OK;
 80018fa:	2300      	movs	r3, #0
}
 80018fc:	4618      	mov	r0, r3
 80018fe:	3708      	adds	r7, #8
 8001900:	46bd      	mov	sp, r7
 8001902:	bd80      	pop	{r7, pc}
 8001904:	40023800 	.word	0x40023800
 8001908:	420e0040 	.word	0x420e0040
 800190c:	40007000 	.word	0x40007000
 8001910:	420e0044 	.word	0x420e0044

08001914 <HAL_RCC_ClockConfig>:
  *         HPRE[3:0] bits to ensure that HCLK not exceed the maximum allowed frequency
  *         (for more details refer to section above "Initialization/de-initialization functions")
  * @retval None
  */
HAL_StatusTypeDef HAL_RCC_ClockConfig(const RCC_ClkInitTypeDef  *RCC_ClkInitStruct, uint32_t FLatency)
{
 8001914:	b580      	push	{r7, lr}
 8001916:	b084      	sub	sp, #16
 8001918:	af00      	add	r7, sp, #0
 800191a:	6078      	str	r0, [r7, #4]
 800191c:	6039      	str	r1, [r7, #0]
  uint32_t tickstart;

  /* Check Null pointer */
  if (RCC_ClkInitStruct == NULL)
 800191e:	687b      	ldr	r3, [r7, #4]
 8001920:	2b00      	cmp	r3, #0
 8001922:	d101      	bne.n	8001928 <HAL_RCC_ClockConfig+0x14>
  {
    return HAL_ERROR;
 8001924:	2301      	movs	r3, #1
 8001926:	e0cc      	b.n	8001ac2 <HAL_RCC_ClockConfig+0x1ae>
  /* To correctly read data from FLASH memory, the number of wait states (LATENCY)
    must be correctly programmed according to the frequency of the CPU clock
    (HCLK) and the supply voltage of the device. */

  /* Increasing the number of wait states because of higher CPU frequency */
  if (FLatency > __HAL_FLASH_GET_LATENCY())
 8001928:	4b68      	ldr	r3, [pc, #416]	@ (8001acc <HAL_RCC_ClockConfig+0x1b8>)
 800192a:	681b      	ldr	r3, [r3, #0]
 800192c:	f003 030f 	and.w	r3, r3, #15
 8001930:	683a      	ldr	r2, [r7, #0]
 8001932:	429a      	cmp	r2, r3
 8001934:	d90c      	bls.n	8001950 <HAL_RCC_ClockConfig+0x3c>
  {
    /* Program the new number of wait states to the LATENCY bits in the FLASH_ACR register */
    __HAL_FLASH_SET_LATENCY(FLatency);
 8001936:	4b65      	ldr	r3, [pc, #404]	@ (8001acc <HAL_RCC_ClockConfig+0x1b8>)
 8001938:	683a      	ldr	r2, [r7, #0]
 800193a:	b2d2      	uxtb	r2, r2
 800193c:	701a      	strb	r2, [r3, #0]

    /* Check that the new number of wait states is taken into account to access the Flash
    memory by reading the FLASH_ACR register */
    if (__HAL_FLASH_GET_LATENCY() != FLatency)
 800193e:	4b63      	ldr	r3, [pc, #396]	@ (8001acc <HAL_RCC_ClockConfig+0x1b8>)
 8001940:	681b      	ldr	r3, [r3, #0]
 8001942:	f003 030f 	and.w	r3, r3, #15
 8001946:	683a      	ldr	r2, [r7, #0]
 8001948:	429a      	cmp	r2, r3
 800194a:	d001      	beq.n	8001950 <HAL_RCC_ClockConfig+0x3c>
    {
      return HAL_ERROR;
 800194c:	2301      	movs	r3, #1
 800194e:	e0b8      	b.n	8001ac2 <HAL_RCC_ClockConfig+0x1ae>
    }
  }

  /*-------------------------- HCLK Configuration --------------------------*/
  if (((RCC_ClkInitStruct->ClockType) & RCC_CLOCKTYPE_HCLK) == RCC_CLOCKTYPE_HCLK)
 8001950:	687b      	ldr	r3, [r7, #4]
 8001952:	681b      	ldr	r3, [r3, #0]
 8001954:	f003 0302 	and.w	r3, r3, #2
 8001958:	2b00      	cmp	r3, #0
 800195a:	d020      	beq.n	800199e <HAL_RCC_ClockConfig+0x8a>
  {
    /* Set the highest APBx dividers in order to ensure that we do not go through
       a non-spec phase whatever we decrease or increase HCLK. */
    if (((RCC_ClkInitStruct->ClockType) & RCC_CLOCKTYPE_PCLK1) == RCC_CLOCKTYPE_PCLK1)
 800195c:	687b      	ldr	r3, [r7, #4]
 800195e:	681b      	ldr	r3, [r3, #0]
 8001960:	f003 0304 	and.w	r3, r3, #4
 8001964:	2b00      	cmp	r3, #0
 8001966:	d005      	beq.n	8001974 <HAL_RCC_ClockConfig+0x60>
    {
      MODIFY_REG(RCC->CFGR, RCC_CFGR_PPRE1, RCC_HCLK_DIV16);
 8001968:	4b59      	ldr	r3, [pc, #356]	@ (8001ad0 <HAL_RCC_ClockConfig+0x1bc>)
 800196a:	689b      	ldr	r3, [r3, #8]
 800196c:	4a58      	ldr	r2, [pc, #352]	@ (8001ad0 <HAL_RCC_ClockConfig+0x1bc>)
 800196e:	f443 53e0 	orr.w	r3, r3, #7168	@ 0x1c00
 8001972:	6093      	str	r3, [r2, #8]
    }

    if (((RCC_ClkInitStruct->ClockType) & RCC_CLOCKTYPE_PCLK2) == RCC_CLOCKTYPE_PCLK2)
 8001974:	687b      	ldr	r3, [r7, #4]
 8001976:	681b      	ldr	r3, [r3, #0]
 8001978:	f003 0308 	and.w	r3, r3, #8
 800197c:	2b00      	cmp	r3, #0
 800197e:	d005      	beq.n	800198c <HAL_RCC_ClockConfig+0x78>
    {
      MODIFY_REG(RCC->CFGR, RCC_CFGR_PPRE2, (RCC_HCLK_DIV16 << 3));
 8001980:	4b53      	ldr	r3, [pc, #332]	@ (8001ad0 <HAL_RCC_ClockConfig+0x1bc>)
 8001982:	689b      	ldr	r3, [r3, #8]
 8001984:	4a52      	ldr	r2, [pc, #328]	@ (8001ad0 <HAL_RCC_ClockConfig+0x1bc>)
 8001986:	f443 4360 	orr.w	r3, r3, #57344	@ 0xe000
 800198a:	6093      	str	r3, [r2, #8]
    }

    assert_param(IS_RCC_HCLK(RCC_ClkInitStruct->AHBCLKDivider));
    MODIFY_REG(RCC->CFGR, RCC_CFGR_HPRE, RCC_ClkInitStruct->AHBCLKDivider);
 800198c:	4b50      	ldr	r3, [pc, #320]	@ (8001ad0 <HAL_RCC_ClockConfig+0x1bc>)
 800198e:	689b      	ldr	r3, [r3, #8]
 8001990:	f023 02f0 	bic.w	r2, r3, #240	@ 0xf0
 8001994:	687b      	ldr	r3, [r7, #4]
 8001996:	689b      	ldr	r3, [r3, #8]
 8001998:	494d      	ldr	r1, [pc, #308]	@ (8001ad0 <HAL_RCC_ClockConfig+0x1bc>)
 800199a:	4313      	orrs	r3, r2
 800199c:	608b      	str	r3, [r1, #8]
  }

  /*------------------------- SYSCLK Configuration ---------------------------*/
  if (((RCC_ClkInitStruct->ClockType) & RCC_CLOCKTYPE_SYSCLK) == RCC_CLOCKTYPE_SYSCLK)
 800199e:	687b      	ldr	r3, [r7, #4]
 80019a0:	681b      	ldr	r3, [r3, #0]
 80019a2:	f003 0301 	and.w	r3, r3, #1
 80019a6:	2b00      	cmp	r3, #0
 80019a8:	d044      	beq.n	8001a34 <HAL_RCC_ClockConfig+0x120>
  {
    assert_param(IS_RCC_SYSCLKSOURCE(RCC_ClkInitStruct->SYSCLKSource));

    /* HSE is selected as System Clock Source */
    if (RCC_ClkInitStruct->SYSCLKSource == RCC_SYSCLKSOURCE_HSE)
 80019aa:	687b      	ldr	r3, [r7, #4]
 80019ac:	685b      	ldr	r3, [r3, #4]
 80019ae:	2b01      	cmp	r3, #1
 80019b0:	d107      	bne.n	80019c2 <HAL_RCC_ClockConfig+0xae>
    {
      /* Check the HSE ready flag */
      if (__HAL_RCC_GET_FLAG(RCC_FLAG_HSERDY) == RESET)
 80019b2:	4b47      	ldr	r3, [pc, #284]	@ (8001ad0 <HAL_RCC_ClockConfig+0x1bc>)
 80019b4:	681b      	ldr	r3, [r3, #0]
 80019b6:	f403 3300 	and.w	r3, r3, #131072	@ 0x20000
 80019ba:	2b00      	cmp	r3, #0
 80019bc:	d119      	bne.n	80019f2 <HAL_RCC_ClockConfig+0xde>
      {
        return HAL_ERROR;
 80019be:	2301      	movs	r3, #1
 80019c0:	e07f      	b.n	8001ac2 <HAL_RCC_ClockConfig+0x1ae>
      }
    }
    /* PLL is selected as System Clock Source */
    else if ((RCC_ClkInitStruct->SYSCLKSource == RCC_SYSCLKSOURCE_PLLCLK)   ||
 80019c2:	687b      	ldr	r3, [r7, #4]
 80019c4:	685b      	ldr	r3, [r3, #4]
 80019c6:	2b02      	cmp	r3, #2
 80019c8:	d003      	beq.n	80019d2 <HAL_RCC_ClockConfig+0xbe>
             (RCC_ClkInitStruct->SYSCLKSource == RCC_SYSCLKSOURCE_PLLRCLK))
 80019ca:	687b      	ldr	r3, [r7, #4]
 80019cc:	685b      	ldr	r3, [r3, #4]
    else if ((RCC_ClkInitStruct->SYSCLKSource == RCC_SYSCLKSOURCE_PLLCLK)   ||
 80019ce:	2b03      	cmp	r3, #3
 80019d0:	d107      	bne.n	80019e2 <HAL_RCC_ClockConfig+0xce>
    {
      /* Check the PLL ready flag */
      if (__HAL_RCC_GET_FLAG(RCC_FLAG_PLLRDY) == RESET)
 80019d2:	4b3f      	ldr	r3, [pc, #252]	@ (8001ad0 <HAL_RCC_ClockConfig+0x1bc>)
 80019d4:	681b      	ldr	r3, [r3, #0]
 80019d6:	f003 7300 	and.w	r3, r3, #33554432	@ 0x2000000
 80019da:	2b00      	cmp	r3, #0
 80019dc:	d109      	bne.n	80019f2 <HAL_RCC_ClockConfig+0xde>
      {
        return HAL_ERROR;
 80019de:	2301      	movs	r3, #1
 80019e0:	e06f      	b.n	8001ac2 <HAL_RCC_ClockConfig+0x1ae>
    }
    /* HSI is selected as System Clock Source */
    else
    {
      /* Check the HSI ready flag */
      if (__HAL_RCC_GET_FLAG(RCC_FLAG_HSIRDY) == RESET)
 80019e2:	4b3b      	ldr	r3, [pc, #236]	@ (8001ad0 <HAL_RCC_ClockConfig+0x1bc>)
 80019e4:	681b      	ldr	r3, [r3, #0]
 80019e6:	f003 0302 	and.w	r3, r3, #2
 80019ea:	2b00      	cmp	r3, #0
 80019ec:	d101      	bne.n	80019f2 <HAL_RCC_ClockConfig+0xde>
      {
        return HAL_ERROR;
 80019ee:	2301      	movs	r3, #1
 80019f0:	e067      	b.n	8001ac2 <HAL_RCC_ClockConfig+0x1ae>
      }
    }

    __HAL_RCC_SYSCLK_CONFIG(RCC_ClkInitStruct->SYSCLKSource);
 80019f2:	4b37      	ldr	r3, [pc, #220]	@ (8001ad0 <HAL_RCC_ClockConfig+0x1bc>)
 80019f4:	689b      	ldr	r3, [r3, #8]
 80019f6:	f023 0203 	bic.w	r2, r3, #3
 80019fa:	687b      	ldr	r3, [r7, #4]
 80019fc:	685b      	ldr	r3, [r3, #4]
 80019fe:	4934      	ldr	r1, [pc, #208]	@ (8001ad0 <HAL_RCC_ClockConfig+0x1bc>)
 8001a00:	4313      	orrs	r3, r2
 8001a02:	608b      	str	r3, [r1, #8]

    /* Get Start Tick */
    tickstart = HAL_GetTick();
 8001a04:	f7ff fc46 	bl	8001294 <HAL_GetTick>
 8001a08:	60f8      	str	r0, [r7, #12]

    while (__HAL_RCC_GET_SYSCLK_SOURCE() != (RCC_ClkInitStruct->SYSCLKSource << RCC_CFGR_SWS_Pos))
 8001a0a:	e00a      	b.n	8001a22 <HAL_RCC_ClockConfig+0x10e>
    {
      if ((HAL_GetTick() - tickstart) > CLOCKSWITCH_TIMEOUT_VALUE)
 8001a0c:	f7ff fc42 	bl	8001294 <HAL_GetTick>
 8001a10:	4602      	mov	r2, r0
 8001a12:	68fb      	ldr	r3, [r7, #12]
 8001a14:	1ad3      	subs	r3, r2, r3
 8001a16:	f241 3288 	movw	r2, #5000	@ 0x1388
 8001a1a:	4293      	cmp	r3, r2
 8001a1c:	d901      	bls.n	8001a22 <HAL_RCC_ClockConfig+0x10e>
      {
        return HAL_TIMEOUT;
 8001a1e:	2303      	movs	r3, #3
 8001a20:	e04f      	b.n	8001ac2 <HAL_RCC_ClockConfig+0x1ae>
    while (__HAL_RCC_GET_SYSCLK_SOURCE() != (RCC_ClkInitStruct->SYSCLKSource << RCC_CFGR_SWS_Pos))
 8001a22:	4b2b      	ldr	r3, [pc, #172]	@ (8001ad0 <HAL_RCC_ClockConfig+0x1bc>)
 8001a24:	689b      	ldr	r3, [r3, #8]
 8001a26:	f003 020c 	and.w	r2, r3, #12
 8001a2a:	687b      	ldr	r3, [r7, #4]
 8001a2c:	685b      	ldr	r3, [r3, #4]
 8001a2e:	009b      	lsls	r3, r3, #2
 8001a30:	429a      	cmp	r2, r3
 8001a32:	d1eb      	bne.n	8001a0c <HAL_RCC_ClockConfig+0xf8>
      }
    }
  }

  /* Decreasing the number of wait states because of lower CPU frequency */
  if (FLatency < __HAL_FLASH_GET_LATENCY())
 8001a34:	4b25      	ldr	r3, [pc, #148]	@ (8001acc <HAL_RCC_ClockConfig+0x1b8>)
 8001a36:	681b      	ldr	r3, [r3, #0]
 8001a38:	f003 030f 	and.w	r3, r3, #15
 8001a3c:	683a      	ldr	r2, [r7, #0]
 8001a3e:	429a      	cmp	r2, r3
 8001a40:	d20c      	bcs.n	8001a5c <HAL_RCC_ClockConfig+0x148>
  {
    /* Program the new number of wait states to the LATENCY bits in the FLASH_ACR register */
    __HAL_FLASH_SET_LATENCY(FLatency);
 8001a42:	4b22      	ldr	r3, [pc, #136]	@ (8001acc <HAL_RCC_ClockConfig+0x1b8>)
 8001a44:	683a      	ldr	r2, [r7, #0]
 8001a46:	b2d2      	uxtb	r2, r2
 8001a48:	701a      	strb	r2, [r3, #0]

    /* Check that the new number of wait states is taken into account to access the Flash
    memory by reading the FLASH_ACR register */
    if (__HAL_FLASH_GET_LATENCY() != FLatency)
 8001a4a:	4b20      	ldr	r3, [pc, #128]	@ (8001acc <HAL_RCC_ClockConfig+0x1b8>)
 8001a4c:	681b      	ldr	r3, [r3, #0]
 8001a4e:	f003 030f 	and.w	r3, r3, #15
 8001a52:	683a      	ldr	r2, [r7, #0]
 8001a54:	429a      	cmp	r2, r3
 8001a56:	d001      	beq.n	8001a5c <HAL_RCC_ClockConfig+0x148>
    {
      return HAL_ERROR;
 8001a58:	2301      	movs	r3, #1
 8001a5a:	e032      	b.n	8001ac2 <HAL_RCC_ClockConfig+0x1ae>
    }
  }

  /*-------------------------- PCLK1 Configuration ---------------------------*/
  if (((RCC_ClkInitStruct->ClockType) & RCC_CLOCKTYPE_PCLK1) == RCC_CLOCKTYPE_PCLK1)
 8001a5c:	687b      	ldr	r3, [r7, #4]
 8001a5e:	681b      	ldr	r3, [r3, #0]
 8001a60:	f003 0304 	and.w	r3, r3, #4
 8001a64:	2b00      	cmp	r3, #0
 8001a66:	d008      	beq.n	8001a7a <HAL_RCC_ClockConfig+0x166>
  {
    assert_param(IS_RCC_PCLK(RCC_ClkInitStruct->APB1CLKDivider));
    MODIFY_REG(RCC->CFGR, RCC_CFGR_PPRE1, RCC_ClkInitStruct->APB1CLKDivider);
 8001a68:	4b19      	ldr	r3, [pc, #100]	@ (8001ad0 <HAL_RCC_ClockConfig+0x1bc>)
 8001a6a:	689b      	ldr	r3, [r3, #8]
 8001a6c:	f423 52e0 	bic.w	r2, r3, #7168	@ 0x1c00
 8001a70:	687b      	ldr	r3, [r7, #4]
 8001a72:	68db      	ldr	r3, [r3, #12]
 8001a74:	4916      	ldr	r1, [pc, #88]	@ (8001ad0 <HAL_RCC_ClockConfig+0x1bc>)
 8001a76:	4313      	orrs	r3, r2
 8001a78:	608b      	str	r3, [r1, #8]
  }

  /*-------------------------- PCLK2 Configuration ---------------------------*/
  if (((RCC_ClkInitStruct->ClockType) & RCC_CLOCKTYPE_PCLK2) == RCC_CLOCKTYPE_PCLK2)
 8001a7a:	687b      	ldr	r3, [r7, #4]
 8001a7c:	681b      	ldr	r3, [r3, #0]
 8001a7e:	f003 0308 	and.w	r3, r3, #8
 8001a82:	2b00      	cmp	r3, #0
 8001a84:	d009      	beq.n	8001a9a <HAL_RCC_ClockConfig+0x186>
  {
    assert_param(IS_RCC_PCLK(RCC_ClkInitStruct->APB2CLKDivider));
    MODIFY_REG(RCC->CFGR, RCC_CFGR_PPRE2, ((RCC_ClkInitStruct->APB2CLKDivider) << 3U));
 8001a86:	4b12      	ldr	r3, [pc, #72]	@ (8001ad0 <HAL_RCC_ClockConfig+0x1bc>)
 8001a88:	689b      	ldr	r3, [r3, #8]
 8001a8a:	f423 4260 	bic.w	r2, r3, #57344	@ 0xe000
 8001a8e:	687b      	ldr	r3, [r7, #4]
 8001a90:	691b      	ldr	r3, [r3, #16]
 8001a92:	00db      	lsls	r3, r3, #3
 8001a94:	490e      	ldr	r1, [pc, #56]	@ (8001ad0 <HAL_RCC_ClockConfig+0x1bc>)
 8001a96:	4313      	orrs	r3, r2
 8001a98:	608b      	str	r3, [r1, #8]
  }

  /* Update the SystemCoreClock global variable */
  SystemCoreClock = HAL_RCC_GetSysClockFreq() >> AHBPrescTable[(RCC->CFGR & RCC_CFGR_HPRE) >> RCC_CFGR_HPRE_Pos];
 8001a9a:	f000 f855 	bl	8001b48 <HAL_RCC_GetSysClockFreq>
 8001a9e:	4602      	mov	r2, r0
 8001aa0:	4b0b      	ldr	r3, [pc, #44]	@ (8001ad0 <HAL_RCC_ClockConfig+0x1bc>)
 8001aa2:	689b      	ldr	r3, [r3, #8]
 8001aa4:	091b      	lsrs	r3, r3, #4
 8001aa6:	f003 030f 	and.w	r3, r3, #15
 8001aaa:	490a      	ldr	r1, [pc, #40]	@ (8001ad4 <HAL_RCC_ClockConfig+0x1c0>)
 8001aac:	5ccb      	ldrb	r3, [r1, r3]
 8001aae:	fa22 f303 	lsr.w	r3, r2, r3
 8001ab2:	4a09      	ldr	r2, [pc, #36]	@ (8001ad8 <HAL_RCC_ClockConfig+0x1c4>)
 8001ab4:	6013      	str	r3, [r2, #0]

  /* Configure the source of time base considering new system clocks settings */
  HAL_InitTick(uwTickPrio);
 8001ab6:	4b09      	ldr	r3, [pc, #36]	@ (8001adc <HAL_RCC_ClockConfig+0x1c8>)
 8001ab8:	681b      	ldr	r3, [r3, #0]
 8001aba:	4618      	mov	r0, r3
 8001abc:	f7ff fba6 	bl	800120c <HAL_InitTick>

  return HAL_OK;
 8001ac0:	2300      	movs	r3, #0
}
 8001ac2:	4618      	mov	r0, r3
 8001ac4:	3710      	adds	r7, #16
 8001ac6:	46bd      	mov	sp, r7
 8001ac8:	bd80      	pop	{r7, pc}
 8001aca:	bf00      	nop
 8001acc:	40023c00 	.word	0x40023c00
 8001ad0:	40023800 	.word	0x40023800
 8001ad4:	08003c14 	.word	0x08003c14
 8001ad8:	20000000 	.word	0x20000000
 8001adc:	20000004 	.word	0x20000004

08001ae0 <HAL_RCC_GetHCLKFreq>:
  * @note   The SystemCoreClock CMSIS variable is used to store System Clock Frequency
  *         and updated within this function
  * @retval HCLK frequency
  */
uint32_t HAL_RCC_GetHCLKFreq(void)
{
 8001ae0:	b480      	push	{r7}
 8001ae2:	af00      	add	r7, sp, #0
  return SystemCoreClock;
 8001ae4:	4b03      	ldr	r3, [pc, #12]	@ (8001af4 <HAL_RCC_GetHCLKFreq+0x14>)
 8001ae6:	681b      	ldr	r3, [r3, #0]
}
 8001ae8:	4618      	mov	r0, r3
 8001aea:	46bd      	mov	sp, r7
 8001aec:	f85d 7b04 	ldr.w	r7, [sp], #4
 8001af0:	4770      	bx	lr
 8001af2:	bf00      	nop
 8001af4:	20000000 	.word	0x20000000

08001af8 <HAL_RCC_GetPCLK1Freq>:
  * @note   Each time PCLK1 changes, this function must be called to update the
  *         right PCLK1 value. Otherwise, any configuration based on this function will be incorrect.
  * @retval PCLK1 frequency
  */
uint32_t HAL_RCC_GetPCLK1Freq(void)
{
 8001af8:	b580      	push	{r7, lr}
 8001afa:	af00      	add	r7, sp, #0
  /* Get HCLK source and Compute PCLK1 frequency ---------------------------*/
  return (HAL_RCC_GetHCLKFreq() >> APBPrescTable[(RCC->CFGR & RCC_CFGR_PPRE1) >> RCC_CFGR_PPRE1_Pos]);
 8001afc:	f7ff fff0 	bl	8001ae0 <HAL_RCC_GetHCLKFreq>
 8001b00:	4602      	mov	r2, r0
 8001b02:	4b05      	ldr	r3, [pc, #20]	@ (8001b18 <HAL_RCC_GetPCLK1Freq+0x20>)
 8001b04:	689b      	ldr	r3, [r3, #8]
 8001b06:	0a9b      	lsrs	r3, r3, #10
 8001b08:	f003 0307 	and.w	r3, r3, #7
 8001b0c:	4903      	ldr	r1, [pc, #12]	@ (8001b1c <HAL_RCC_GetPCLK1Freq+0x24>)
 8001b0e:	5ccb      	ldrb	r3, [r1, r3]
 8001b10:	fa22 f303 	lsr.w	r3, r2, r3
}
 8001b14:	4618      	mov	r0, r3
 8001b16:	bd80      	pop	{r7, pc}
 8001b18:	40023800 	.word	0x40023800
 8001b1c:	08003c24 	.word	0x08003c24

08001b20 <HAL_RCC_GetPCLK2Freq>:
  * @note   Each time PCLK2 changes, this function must be called to update the
  *         right PCLK2 value. Otherwise, any configuration based on this function will be incorrect.
  * @retval PCLK2 frequency
  */
uint32_t HAL_RCC_GetPCLK2Freq(void)
{
 8001b20:	b580      	push	{r7, lr}
 8001b22:	af00      	add	r7, sp, #0
  /* Get HCLK source and Compute PCLK2 frequency ---------------------------*/
  return (HAL_RCC_GetHCLKFreq() >> APBPrescTable[(RCC->CFGR & RCC_CFGR_PPRE2) >> RCC_CFGR_PPRE2_Pos]);
 8001b24:	f7ff ffdc 	bl	8001ae0 <HAL_RCC_GetHCLKFreq>
 8001b28:	4602      	mov	r2, r0
 8001b2a:	4b05      	ldr	r3, [pc, #20]	@ (8001b40 <HAL_RCC_GetPCLK2Freq+0x20>)
 8001b2c:	689b      	ldr	r3, [r3, #8]
 8001b2e:	0b5b      	lsrs	r3, r3, #13
 8001b30:	f003 0307 	and.w	r3, r3, #7
 8001b34:	4903      	ldr	r1, [pc, #12]	@ (8001b44 <HAL_RCC_GetPCLK2Freq+0x24>)
 8001b36:	5ccb      	ldrb	r3, [r1, r3]
 8001b38:	fa22 f303 	lsr.w	r3, r2, r3
}
 8001b3c:	4618      	mov	r0, r3
 8001b3e:	bd80      	pop	{r7, pc}
 8001b40:	40023800 	.word	0x40023800
 8001b44:	08003c24 	.word	0x08003c24

08001b48 <HAL_RCC_GetSysClockFreq>:
  *
  *
  * @retval SYSCLK frequency
  */
uint32_t HAL_RCC_GetSysClockFreq(void)
{
 8001b48:	e92d 4fb0 	stmdb	sp!, {r4, r5, r7, r8, r9, sl, fp, lr}
 8001b4c:	b0ae      	sub	sp, #184	@ 0xb8
 8001b4e:	af00      	add	r7, sp, #0
  uint32_t pllm = 0U;
 8001b50:	2300      	movs	r3, #0
 8001b52:	f8c7 30ac 	str.w	r3, [r7, #172]	@ 0xac
  uint32_t pllvco = 0U;
 8001b56:	2300      	movs	r3, #0
 8001b58:	f8c7 30b4 	str.w	r3, [r7, #180]	@ 0xb4
  uint32_t pllp = 0U;
 8001b5c:	2300      	movs	r3, #0
 8001b5e:	f8c7 30a8 	str.w	r3, [r7, #168]	@ 0xa8
  uint32_t pllr = 0U;
 8001b62:	2300      	movs	r3, #0
 8001b64:	f8c7 30a4 	str.w	r3, [r7, #164]	@ 0xa4
  uint32_t sysclockfreq = 0U;
 8001b68:	2300      	movs	r3, #0
 8001b6a:	f8c7 30b0 	str.w	r3, [r7, #176]	@ 0xb0

  /* Get SYSCLK source -------------------------------------------------------*/
  switch (RCC->CFGR & RCC_CFGR_SWS)
 8001b6e:	4bcb      	ldr	r3, [pc, #812]	@ (8001e9c <HAL_RCC_GetSysClockFreq+0x354>)
 8001b70:	689b      	ldr	r3, [r3, #8]
 8001b72:	f003 030c 	and.w	r3, r3, #12
 8001b76:	2b0c      	cmp	r3, #12
 8001b78:	f200 8206 	bhi.w	8001f88 <HAL_RCC_GetSysClockFreq+0x440>
 8001b7c:	a201      	add	r2, pc, #4	@ (adr r2, 8001b84 <HAL_RCC_GetSysClockFreq+0x3c>)
 8001b7e:	f852 f023 	ldr.w	pc, [r2, r3, lsl #2]
 8001b82:	bf00      	nop
 8001b84:	08001bb9 	.word	0x08001bb9
 8001b88:	08001f89 	.word	0x08001f89
 8001b8c:	08001f89 	.word	0x08001f89
 8001b90:	08001f89 	.word	0x08001f89
 8001b94:	08001bc1 	.word	0x08001bc1
 8001b98:	08001f89 	.word	0x08001f89
 8001b9c:	08001f89 	.word	0x08001f89
 8001ba0:	08001f89 	.word	0x08001f89
 8001ba4:	08001bc9 	.word	0x08001bc9
 8001ba8:	08001f89 	.word	0x08001f89
 8001bac:	08001f89 	.word	0x08001f89
 8001bb0:	08001f89 	.word	0x08001f89
 8001bb4:	08001db9 	.word	0x08001db9
  {
    case RCC_CFGR_SWS_HSI:  /* HSI used as system clock source */
    {
      sysclockfreq = HSI_VALUE;
 8001bb8:	4bb9      	ldr	r3, [pc, #740]	@ (8001ea0 <HAL_RCC_GetSysClockFreq+0x358>)
 8001bba:	f8c7 30b0 	str.w	r3, [r7, #176]	@ 0xb0
      break;
 8001bbe:	e1e7      	b.n	8001f90 <HAL_RCC_GetSysClockFreq+0x448>
    }
    case RCC_CFGR_SWS_HSE:  /* HSE used as system clock  source */
    {
      sysclockfreq = HSE_VALUE;
 8001bc0:	4bb8      	ldr	r3, [pc, #736]	@ (8001ea4 <HAL_RCC_GetSysClockFreq+0x35c>)
 8001bc2:	f8c7 30b0 	str.w	r3, [r7, #176]	@ 0xb0
      break;
 8001bc6:	e1e3      	b.n	8001f90 <HAL_RCC_GetSysClockFreq+0x448>
    }
    case RCC_CFGR_SWS_PLL:  /* PLL/PLLP used as system clock  source */
    {
      /* PLL_VCO = (HSE_VALUE or HSI_VALUE / PLLM) * PLLN
      SYSCLK = PLL_VCO / PLLP */
      pllm = RCC->PLLCFGR & RCC_PLLCFGR_PLLM;
 8001bc8:	4bb4      	ldr	r3, [pc, #720]	@ (8001e9c <HAL_RCC_GetSysClockFreq+0x354>)
 8001bca:	685b      	ldr	r3, [r3, #4]
 8001bcc:	f003 033f 	and.w	r3, r3, #63	@ 0x3f
 8001bd0:	f8c7 30ac 	str.w	r3, [r7, #172]	@ 0xac
      if (__HAL_RCC_GET_PLL_OSCSOURCE() != RCC_PLLSOURCE_HSI)
 8001bd4:	4bb1      	ldr	r3, [pc, #708]	@ (8001e9c <HAL_RCC_GetSysClockFreq+0x354>)
 8001bd6:	685b      	ldr	r3, [r3, #4]
 8001bd8:	f403 0380 	and.w	r3, r3, #4194304	@ 0x400000
 8001bdc:	2b00      	cmp	r3, #0
 8001bde:	d071      	beq.n	8001cc4 <HAL_RCC_GetSysClockFreq+0x17c>
      {
        /* HSE used as PLL clock source */
        pllvco = (uint32_t)((((uint64_t) HSE_VALUE * ((uint64_t)((RCC->PLLCFGR & RCC_PLLCFGR_PLLN) >> RCC_PLLCFGR_PLLN_Pos)))) / (uint64_t)pllm);
 8001be0:	4bae      	ldr	r3, [pc, #696]	@ (8001e9c <HAL_RCC_GetSysClockFreq+0x354>)
 8001be2:	685b      	ldr	r3, [r3, #4]
 8001be4:	099b      	lsrs	r3, r3, #6
 8001be6:	2200      	movs	r2, #0
 8001be8:	f8c7 3098 	str.w	r3, [r7, #152]	@ 0x98
 8001bec:	f8c7 209c 	str.w	r2, [r7, #156]	@ 0x9c
 8001bf0:	f8d7 3098 	ldr.w	r3, [r7, #152]	@ 0x98
 8001bf4:	f3c3 0308 	ubfx	r3, r3, #0, #9
 8001bf8:	f8c7 3090 	str.w	r3, [r7, #144]	@ 0x90
 8001bfc:	2300      	movs	r3, #0
 8001bfe:	f8c7 3094 	str.w	r3, [r7, #148]	@ 0x94
 8001c02:	e9d7 4524 	ldrd	r4, r5, [r7, #144]	@ 0x90
 8001c06:	4622      	mov	r2, r4
 8001c08:	462b      	mov	r3, r5
 8001c0a:	f04f 0000 	mov.w	r0, #0
 8001c0e:	f04f 0100 	mov.w	r1, #0
 8001c12:	0159      	lsls	r1, r3, #5
 8001c14:	ea41 61d2 	orr.w	r1, r1, r2, lsr #27
 8001c18:	0150      	lsls	r0, r2, #5
 8001c1a:	4602      	mov	r2, r0
 8001c1c:	460b      	mov	r3, r1
 8001c1e:	4621      	mov	r1, r4
 8001c20:	1a51      	subs	r1, r2, r1
 8001c22:	6439      	str	r1, [r7, #64]	@ 0x40
 8001c24:	4629      	mov	r1, r5
 8001c26:	eb63 0301 	sbc.w	r3, r3, r1
 8001c2a:	647b      	str	r3, [r7, #68]	@ 0x44
 8001c2c:	f04f 0200 	mov.w	r2, #0
 8001c30:	f04f 0300 	mov.w	r3, #0
 8001c34:	e9d7 8910 	ldrd	r8, r9, [r7, #64]	@ 0x40
 8001c38:	4649      	mov	r1, r9
 8001c3a:	018b      	lsls	r3, r1, #6
 8001c3c:	4641      	mov	r1, r8
 8001c3e:	ea43 6391 	orr.w	r3, r3, r1, lsr #26
 8001c42:	4641      	mov	r1, r8
 8001c44:	018a      	lsls	r2, r1, #6
 8001c46:	4641      	mov	r1, r8
 8001c48:	1a51      	subs	r1, r2, r1
 8001c4a:	63b9      	str	r1, [r7, #56]	@ 0x38
 8001c4c:	4649      	mov	r1, r9
 8001c4e:	eb63 0301 	sbc.w	r3, r3, r1
 8001c52:	63fb      	str	r3, [r7, #60]	@ 0x3c
 8001c54:	f04f 0200 	mov.w	r2, #0
 8001c58:	f04f 0300 	mov.w	r3, #0
 8001c5c:	e9d7 890e 	ldrd	r8, r9, [r7, #56]	@ 0x38
 8001c60:	4649      	mov	r1, r9
 8001c62:	00cb      	lsls	r3, r1, #3
 8001c64:	4641      	mov	r1, r8
 8001c66:	ea43 7351 	orr.w	r3, r3, r1, lsr #29
 8001c6a:	4641      	mov	r1, r8
 8001c6c:	00ca      	lsls	r2, r1, #3
 8001c6e:	4610      	mov	r0, r2
 8001c70:	4619      	mov	r1, r3
 8001c72:	4603      	mov	r3, r0
 8001c74:	4622      	mov	r2, r4
 8001c76:	189b      	adds	r3, r3, r2
 8001c78:	633b      	str	r3, [r7, #48]	@ 0x30
 8001c7a:	462b      	mov	r3, r5
 8001c7c:	460a      	mov	r2, r1
 8001c7e:	eb42 0303 	adc.w	r3, r2, r3
 8001c82:	637b      	str	r3, [r7, #52]	@ 0x34
 8001c84:	f04f 0200 	mov.w	r2, #0
 8001c88:	f04f 0300 	mov.w	r3, #0
 8001c8c:	e9d7 450c 	ldrd	r4, r5, [r7, #48]	@ 0x30
 8001c90:	4629      	mov	r1, r5
 8001c92:	024b      	lsls	r3, r1, #9
 8001c94:	4621      	mov	r1, r4
 8001c96:	ea43 53d1 	orr.w	r3, r3, r1, lsr #23
 8001c9a:	4621      	mov	r1, r4
 8001c9c:	024a      	lsls	r2, r1, #9
 8001c9e:	4610      	mov	r0, r2
 8001ca0:	4619      	mov	r1, r3
 8001ca2:	f8d7 30ac 	ldr.w	r3, [r7, #172]	@ 0xac
 8001ca6:	2200      	movs	r2, #0
 8001ca8:	f8c7 3088 	str.w	r3, [r7, #136]	@ 0x88
 8001cac:	f8c7 208c 	str.w	r2, [r7, #140]	@ 0x8c
 8001cb0:	e9d7 2322 	ldrd	r2, r3, [r7, #136]	@ 0x88
 8001cb4:	f7fe fcb4 	bl	8000620 <__aeabi_uldivmod>
 8001cb8:	4602      	mov	r2, r0
 8001cba:	460b      	mov	r3, r1
 8001cbc:	4613      	mov	r3, r2
 8001cbe:	f8c7 30b4 	str.w	r3, [r7, #180]	@ 0xb4
 8001cc2:	e067      	b.n	8001d94 <HAL_RCC_GetSysClockFreq+0x24c>
      }
      else
      {
        /* HSI used as PLL clock source */
        pllvco = (uint32_t)((((uint64_t) HSI_VALUE * ((uint64_t)((RCC->PLLCFGR & RCC_PLLCFGR_PLLN) >> RCC_PLLCFGR_PLLN_Pos)))) / (uint64_t)pllm);
 8001cc4:	4b75      	ldr	r3, [pc, #468]	@ (8001e9c <HAL_RCC_GetSysClockFreq+0x354>)
 8001cc6:	685b      	ldr	r3, [r3, #4]
 8001cc8:	099b      	lsrs	r3, r3, #6
 8001cca:	2200      	movs	r2, #0
 8001ccc:	f8c7 3080 	str.w	r3, [r7, #128]	@ 0x80
 8001cd0:	f8c7 2084 	str.w	r2, [r7, #132]	@ 0x84
 8001cd4:	f8d7 3080 	ldr.w	r3, [r7, #128]	@ 0x80
 8001cd8:	f3c3 0308 	ubfx	r3, r3, #0, #9
 8001cdc:	67bb      	str	r3, [r7, #120]	@ 0x78
 8001cde:	2300      	movs	r3, #0
 8001ce0:	67fb      	str	r3, [r7, #124]	@ 0x7c
 8001ce2:	e9d7 451e 	ldrd	r4, r5, [r7, #120]	@ 0x78
 8001ce6:	4622      	mov	r2, r4
 8001ce8:	462b      	mov	r3, r5
 8001cea:	f04f 0000 	mov.w	r0, #0
 8001cee:	f04f 0100 	mov.w	r1, #0
 8001cf2:	0159      	lsls	r1, r3, #5
 8001cf4:	ea41 61d2 	orr.w	r1, r1, r2, lsr #27
 8001cf8:	0150      	lsls	r0, r2, #5
 8001cfa:	4602      	mov	r2, r0
 8001cfc:	460b      	mov	r3, r1
 8001cfe:	4621      	mov	r1, r4
 8001d00:	1a51      	subs	r1, r2, r1
 8001d02:	62b9      	str	r1, [r7, #40]	@ 0x28
 8001d04:	4629      	mov	r1, r5
 8001d06:	eb63 0301 	sbc.w	r3, r3, r1
 8001d0a:	62fb      	str	r3, [r7, #44]	@ 0x2c
 8001d0c:	f04f 0200 	mov.w	r2, #0
 8001d10:	f04f 0300 	mov.w	r3, #0
 8001d14:	e9d7 890a 	ldrd	r8, r9, [r7, #40]	@ 0x28
 8001d18:	4649      	mov	r1, r9
 8001d1a:	018b      	lsls	r3, r1, #6
 8001d1c:	4641      	mov	r1, r8
 8001d1e:	ea43 6391 	orr.w	r3, r3, r1, lsr #26
 8001d22:	4641      	mov	r1, r8
 8001d24:	018a      	lsls	r2, r1, #6
 8001d26:	4641      	mov	r1, r8
 8001d28:	ebb2 0a01 	subs.w	sl, r2, r1
 8001d2c:	4649      	mov	r1, r9
 8001d2e:	eb63 0b01 	sbc.w	fp, r3, r1
 8001d32:	f04f 0200 	mov.w	r2, #0
 8001d36:	f04f 0300 	mov.w	r3, #0
 8001d3a:	ea4f 03cb 	mov.w	r3, fp, lsl #3
 8001d3e:	ea43 735a 	orr.w	r3, r3, sl, lsr #29
 8001d42:	ea4f 02ca 	mov.w	r2, sl, lsl #3
 8001d46:	4692      	mov	sl, r2
 8001d48:	469b      	mov	fp, r3
 8001d4a:	4623      	mov	r3, r4
 8001d4c:	eb1a 0303 	adds.w	r3, sl, r3
 8001d50:	623b      	str	r3, [r7, #32]
 8001d52:	462b      	mov	r3, r5
 8001d54:	eb4b 0303 	adc.w	r3, fp, r3
 8001d58:	627b      	str	r3, [r7, #36]	@ 0x24
 8001d5a:	f04f 0200 	mov.w	r2, #0
 8001d5e:	f04f 0300 	mov.w	r3, #0
 8001d62:	e9d7 4508 	ldrd	r4, r5, [r7, #32]
 8001d66:	4629      	mov	r1, r5
 8001d68:	028b      	lsls	r3, r1, #10
 8001d6a:	4621      	mov	r1, r4
 8001d6c:	ea43 5391 	orr.w	r3, r3, r1, lsr #22
 8001d70:	4621      	mov	r1, r4
 8001d72:	028a      	lsls	r2, r1, #10
 8001d74:	4610      	mov	r0, r2
 8001d76:	4619      	mov	r1, r3
 8001d78:	f8d7 30ac 	ldr.w	r3, [r7, #172]	@ 0xac
 8001d7c:	2200      	movs	r2, #0
 8001d7e:	673b      	str	r3, [r7, #112]	@ 0x70
 8001d80:	677a      	str	r2, [r7, #116]	@ 0x74
 8001d82:	e9d7 231c 	ldrd	r2, r3, [r7, #112]	@ 0x70
 8001d86:	f7fe fc4b 	bl	8000620 <__aeabi_uldivmod>
 8001d8a:	4602      	mov	r2, r0
 8001d8c:	460b      	mov	r3, r1
 8001d8e:	4613      	mov	r3, r2
 8001d90:	f8c7 30b4 	str.w	r3, [r7, #180]	@ 0xb4
      }
      pllp = ((((RCC->PLLCFGR & RCC_PLLCFGR_PLLP) >> RCC_PLLCFGR_PLLP_Pos) + 1U) * 2U);
 8001d94:	4b41      	ldr	r3, [pc, #260]	@ (8001e9c <HAL_RCC_GetSysClockFreq+0x354>)
 8001d96:	685b      	ldr	r3, [r3, #4]
 8001d98:	0c1b      	lsrs	r3, r3, #16
 8001d9a:	f003 0303 	and.w	r3, r3, #3
 8001d9e:	3301      	adds	r3, #1
 8001da0:	005b      	lsls	r3, r3, #1
 8001da2:	f8c7 30a8 	str.w	r3, [r7, #168]	@ 0xa8

      sysclockfreq = pllvco / pllp;
 8001da6:	f8d7 20b4 	ldr.w	r2, [r7, #180]	@ 0xb4
 8001daa:	f8d7 30a8 	ldr.w	r3, [r7, #168]	@ 0xa8
 8001dae:	fbb2 f3f3 	udiv	r3, r2, r3
 8001db2:	f8c7 30b0 	str.w	r3, [r7, #176]	@ 0xb0
      break;
 8001db6:	e0eb      	b.n	8001f90 <HAL_RCC_GetSysClockFreq+0x448>
    }
    case RCC_CFGR_SWS_PLLR:  /* PLL/PLLR used as system clock  source */
    {
      /* PLL_VCO = (HSE_VALUE or HSI_VALUE / PLLM) * PLLN
      SYSCLK = PLL_VCO / PLLR */
      pllm = RCC->PLLCFGR & RCC_PLLCFGR_PLLM;
 8001db8:	4b38      	ldr	r3, [pc, #224]	@ (8001e9c <HAL_RCC_GetSysClockFreq+0x354>)
 8001dba:	685b      	ldr	r3, [r3, #4]
 8001dbc:	f003 033f 	and.w	r3, r3, #63	@ 0x3f
 8001dc0:	f8c7 30ac 	str.w	r3, [r7, #172]	@ 0xac
      if (__HAL_RCC_GET_PLL_OSCSOURCE() != RCC_PLLSOURCE_HSI)
 8001dc4:	4b35      	ldr	r3, [pc, #212]	@ (8001e9c <HAL_RCC_GetSysClockFreq+0x354>)
 8001dc6:	685b      	ldr	r3, [r3, #4]
 8001dc8:	f403 0380 	and.w	r3, r3, #4194304	@ 0x400000
 8001dcc:	2b00      	cmp	r3, #0
 8001dce:	d06b      	beq.n	8001ea8 <HAL_RCC_GetSysClockFreq+0x360>
      {
        /* HSE used as PLL clock source */
        pllvco = (uint32_t)((((uint64_t) HSE_VALUE * ((uint64_t)((RCC->PLLCFGR & RCC_PLLCFGR_PLLN) >> RCC_PLLCFGR_PLLN_Pos)))) / (uint64_t)pllm);
 8001dd0:	4b32      	ldr	r3, [pc, #200]	@ (8001e9c <HAL_RCC_GetSysClockFreq+0x354>)
 8001dd2:	685b      	ldr	r3, [r3, #4]
 8001dd4:	099b      	lsrs	r3, r3, #6
 8001dd6:	2200      	movs	r2, #0
 8001dd8:	66bb      	str	r3, [r7, #104]	@ 0x68
 8001dda:	66fa      	str	r2, [r7, #108]	@ 0x6c
 8001ddc:	6ebb      	ldr	r3, [r7, #104]	@ 0x68
 8001dde:	f3c3 0308 	ubfx	r3, r3, #0, #9
 8001de2:	663b      	str	r3, [r7, #96]	@ 0x60
 8001de4:	2300      	movs	r3, #0
 8001de6:	667b      	str	r3, [r7, #100]	@ 0x64
 8001de8:	e9d7 4518 	ldrd	r4, r5, [r7, #96]	@ 0x60
 8001dec:	4622      	mov	r2, r4
 8001dee:	462b      	mov	r3, r5
 8001df0:	f04f 0000 	mov.w	r0, #0
 8001df4:	f04f 0100 	mov.w	r1, #0
 8001df8:	0159      	lsls	r1, r3, #5
 8001dfa:	ea41 61d2 	orr.w	r1, r1, r2, lsr #27
 8001dfe:	0150      	lsls	r0, r2, #5
 8001e00:	4602      	mov	r2, r0
 8001e02:	460b      	mov	r3, r1
 8001e04:	4621      	mov	r1, r4
 8001e06:	1a51      	subs	r1, r2, r1
 8001e08:	61b9      	str	r1, [r7, #24]
 8001e0a:	4629      	mov	r1, r5
 8001e0c:	eb63 0301 	sbc.w	r3, r3, r1
 8001e10:	61fb      	str	r3, [r7, #28]
 8001e12:	f04f 0200 	mov.w	r2, #0
 8001e16:	f04f 0300 	mov.w	r3, #0
 8001e1a:	e9d7 ab06 	ldrd	sl, fp, [r7, #24]
 8001e1e:	4659      	mov	r1, fp
 8001e20:	018b      	lsls	r3, r1, #6
 8001e22:	4651      	mov	r1, sl
 8001e24:	ea43 6391 	orr.w	r3, r3, r1, lsr #26
 8001e28:	4651      	mov	r1, sl
 8001e2a:	018a      	lsls	r2, r1, #6
 8001e2c:	4651      	mov	r1, sl
 8001e2e:	ebb2 0801 	subs.w	r8, r2, r1
 8001e32:	4659      	mov	r1, fp
 8001e34:	eb63 0901 	sbc.w	r9, r3, r1
 8001e38:	f04f 0200 	mov.w	r2, #0
 8001e3c:	f04f 0300 	mov.w	r3, #0
 8001e40:	ea4f 03c9 	mov.w	r3, r9, lsl #3
 8001e44:	ea43 7358 	orr.w	r3, r3, r8, lsr #29
 8001e48:	ea4f 02c8 	mov.w	r2, r8, lsl #3
 8001e4c:	4690      	mov	r8, r2
 8001e4e:	4699      	mov	r9, r3
 8001e50:	4623      	mov	r3, r4
 8001e52:	eb18 0303 	adds.w	r3, r8, r3
 8001e56:	613b      	str	r3, [r7, #16]
 8001e58:	462b      	mov	r3, r5
 8001e5a:	eb49 0303 	adc.w	r3, r9, r3
 8001e5e:	617b      	str	r3, [r7, #20]
 8001e60:	f04f 0200 	mov.w	r2, #0
 8001e64:	f04f 0300 	mov.w	r3, #0
 8001e68:	e9d7 4504 	ldrd	r4, r5, [r7, #16]
 8001e6c:	4629      	mov	r1, r5
 8001e6e:	024b      	lsls	r3, r1, #9
 8001e70:	4621      	mov	r1, r4
 8001e72:	ea43 53d1 	orr.w	r3, r3, r1, lsr #23
 8001e76:	4621      	mov	r1, r4
 8001e78:	024a      	lsls	r2, r1, #9
 8001e7a:	4610      	mov	r0, r2
 8001e7c:	4619      	mov	r1, r3
 8001e7e:	f8d7 30ac 	ldr.w	r3, [r7, #172]	@ 0xac
 8001e82:	2200      	movs	r2, #0
 8001e84:	65bb      	str	r3, [r7, #88]	@ 0x58
 8001e86:	65fa      	str	r2, [r7, #92]	@ 0x5c
 8001e88:	e9d7 2316 	ldrd	r2, r3, [r7, #88]	@ 0x58
 8001e8c:	f7fe fbc8 	bl	8000620 <__aeabi_uldivmod>
 8001e90:	4602      	mov	r2, r0
 8001e92:	460b      	mov	r3, r1
 8001e94:	4613      	mov	r3, r2
 8001e96:	f8c7 30b4 	str.w	r3, [r7, #180]	@ 0xb4
 8001e9a:	e065      	b.n	8001f68 <HAL_RCC_GetSysClockFreq+0x420>
 8001e9c:	40023800 	.word	0x40023800
 8001ea0:	00f42400 	.word	0x00f42400
 8001ea4:	007a1200 	.word	0x007a1200
      }
      else
      {
        /* HSI used as PLL clock source */
        pllvco = (uint32_t)((((uint64_t) HSI_VALUE * ((uint64_t)((RCC->PLLCFGR & RCC_PLLCFGR_PLLN) >> RCC_PLLCFGR_PLLN_Pos)))) / (uint64_t)pllm);
 8001ea8:	4b3d      	ldr	r3, [pc, #244]	@ (8001fa0 <HAL_RCC_GetSysClockFreq+0x458>)
 8001eaa:	685b      	ldr	r3, [r3, #4]
 8001eac:	099b      	lsrs	r3, r3, #6
 8001eae:	2200      	movs	r2, #0
 8001eb0:	4618      	mov	r0, r3
 8001eb2:	4611      	mov	r1, r2
 8001eb4:	f3c0 0308 	ubfx	r3, r0, #0, #9
 8001eb8:	653b      	str	r3, [r7, #80]	@ 0x50
 8001eba:	2300      	movs	r3, #0
 8001ebc:	657b      	str	r3, [r7, #84]	@ 0x54
 8001ebe:	e9d7 8914 	ldrd	r8, r9, [r7, #80]	@ 0x50
 8001ec2:	4642      	mov	r2, r8
 8001ec4:	464b      	mov	r3, r9
 8001ec6:	f04f 0000 	mov.w	r0, #0
 8001eca:	f04f 0100 	mov.w	r1, #0
 8001ece:	0159      	lsls	r1, r3, #5
 8001ed0:	ea41 61d2 	orr.w	r1, r1, r2, lsr #27
 8001ed4:	0150      	lsls	r0, r2, #5
 8001ed6:	4602      	mov	r2, r0
 8001ed8:	460b      	mov	r3, r1
 8001eda:	4641      	mov	r1, r8
 8001edc:	1a51      	subs	r1, r2, r1
 8001ede:	60b9      	str	r1, [r7, #8]
 8001ee0:	4649      	mov	r1, r9
 8001ee2:	eb63 0301 	sbc.w	r3, r3, r1
 8001ee6:	60fb      	str	r3, [r7, #12]
 8001ee8:	f04f 0200 	mov.w	r2, #0
 8001eec:	f04f 0300 	mov.w	r3, #0
 8001ef0:	e9d7 ab02 	ldrd	sl, fp, [r7, #8]
 8001ef4:	4659      	mov	r1, fp
 8001ef6:	018b      	lsls	r3, r1, #6
 8001ef8:	4651      	mov	r1, sl
 8001efa:	ea43 6391 	orr.w	r3, r3, r1, lsr #26
 8001efe:	4651      	mov	r1, sl
 8001f00:	018a      	lsls	r2, r1, #6
 8001f02:	4651      	mov	r1, sl
 8001f04:	1a54      	subs	r4, r2, r1
 8001f06:	4659      	mov	r1, fp
 8001f08:	eb63 0501 	sbc.w	r5, r3, r1
 8001f0c:	f04f 0200 	mov.w	r2, #0
 8001f10:	f04f 0300 	mov.w	r3, #0
 8001f14:	00eb      	lsls	r3, r5, #3
 8001f16:	ea43 7354 	orr.w	r3, r3, r4, lsr #29
 8001f1a:	00e2      	lsls	r2, r4, #3
 8001f1c:	4614      	mov	r4, r2
 8001f1e:	461d      	mov	r5, r3
 8001f20:	4643      	mov	r3, r8
 8001f22:	18e3      	adds	r3, r4, r3
 8001f24:	603b      	str	r3, [r7, #0]
 8001f26:	464b      	mov	r3, r9
 8001f28:	eb45 0303 	adc.w	r3, r5, r3
 8001f2c:	607b      	str	r3, [r7, #4]
 8001f2e:	f04f 0200 	mov.w	r2, #0
 8001f32:	f04f 0300 	mov.w	r3, #0
 8001f36:	e9d7 4500 	ldrd	r4, r5, [r7]
 8001f3a:	4629      	mov	r1, r5
 8001f3c:	028b      	lsls	r3, r1, #10
 8001f3e:	4621      	mov	r1, r4
 8001f40:	ea43 5391 	orr.w	r3, r3, r1, lsr #22
 8001f44:	4621      	mov	r1, r4
 8001f46:	028a      	lsls	r2, r1, #10
 8001f48:	4610      	mov	r0, r2
 8001f4a:	4619      	mov	r1, r3
 8001f4c:	f8d7 30ac 	ldr.w	r3, [r7, #172]	@ 0xac
 8001f50:	2200      	movs	r2, #0
 8001f52:	64bb      	str	r3, [r7, #72]	@ 0x48
 8001f54:	64fa      	str	r2, [r7, #76]	@ 0x4c
 8001f56:	e9d7 2312 	ldrd	r2, r3, [r7, #72]	@ 0x48
 8001f5a:	f7fe fb61 	bl	8000620 <__aeabi_uldivmod>
 8001f5e:	4602      	mov	r2, r0
 8001f60:	460b      	mov	r3, r1
 8001f62:	4613      	mov	r3, r2
 8001f64:	f8c7 30b4 	str.w	r3, [r7, #180]	@ 0xb4
      }
      pllr = ((RCC->PLLCFGR & RCC_PLLCFGR_PLLR) >> RCC_PLLCFGR_PLLR_Pos);
 8001f68:	4b0d      	ldr	r3, [pc, #52]	@ (8001fa0 <HAL_RCC_GetSysClockFreq+0x458>)
 8001f6a:	685b      	ldr	r3, [r3, #4]
 8001f6c:	0f1b      	lsrs	r3, r3, #28
 8001f6e:	f003 0307 	and.w	r3, r3, #7
 8001f72:	f8c7 30a4 	str.w	r3, [r7, #164]	@ 0xa4

      sysclockfreq = pllvco / pllr;
 8001f76:	f8d7 20b4 	ldr.w	r2, [r7, #180]	@ 0xb4
 8001f7a:	f8d7 30a4 	ldr.w	r3, [r7, #164]	@ 0xa4
 8001f7e:	fbb2 f3f3 	udiv	r3, r2, r3
 8001f82:	f8c7 30b0 	str.w	r3, [r7, #176]	@ 0xb0
      break;
 8001f86:	e003      	b.n	8001f90 <HAL_RCC_GetSysClockFreq+0x448>
    }
    default:
    {
      sysclockfreq = HSI_VALUE;
 8001f88:	4b06      	ldr	r3, [pc, #24]	@ (8001fa4 <HAL_RCC_GetSysClockFreq+0x45c>)
 8001f8a:	f8c7 30b0 	str.w	r3, [r7, #176]	@ 0xb0
      break;
 8001f8e:	bf00      	nop
    }
  }
  return sysclockfreq;
 8001f90:	f8d7 30b0 	ldr.w	r3, [r7, #176]	@ 0xb0
}
 8001f94:	4618      	mov	r0, r3
 8001f96:	37b8      	adds	r7, #184	@ 0xb8
 8001f98:	46bd      	mov	sp, r7
 8001f9a:	e8bd 8fb0 	ldmia.w	sp!, {r4, r5, r7, r8, r9, sl, fp, pc}
 8001f9e:	bf00      	nop
 8001fa0:	40023800 	.word	0x40023800
 8001fa4:	00f42400 	.word	0x00f42400

08001fa8 <HAL_RCC_OscConfig>:
  * @note   This function add the PLL/PLLR factor management during PLL configuration this feature
  *         is only available in STM32F410xx/STM32F446xx/STM32F469xx/STM32F479xx/STM32F412Zx/STM32F412Vx/STM32F412Rx/STM32F412Cx devices
  * @retval HAL status
  */
HAL_StatusTypeDef HAL_RCC_OscConfig(const RCC_OscInitTypeDef  *RCC_OscInitStruct)
{
 8001fa8:	b580      	push	{r7, lr}
 8001faa:	b086      	sub	sp, #24
 8001fac:	af00      	add	r7, sp, #0
 8001fae:	6078      	str	r0, [r7, #4]
  uint32_t tickstart;
  uint32_t pll_config;

  /* Check Null pointer */
  if (RCC_OscInitStruct == NULL)
 8001fb0:	687b      	ldr	r3, [r7, #4]
 8001fb2:	2b00      	cmp	r3, #0
 8001fb4:	d101      	bne.n	8001fba <HAL_RCC_OscConfig+0x12>
  {
    return HAL_ERROR;
 8001fb6:	2301      	movs	r3, #1
 8001fb8:	e28d      	b.n	80024d6 <HAL_RCC_OscConfig+0x52e>
  }

  /* Check the parameters */
  assert_param(IS_RCC_OSCILLATORTYPE(RCC_OscInitStruct->OscillatorType));
  /*------------------------------- HSE Configuration ------------------------*/
  if (((RCC_OscInitStruct->OscillatorType) & RCC_OSCILLATORTYPE_HSE) == RCC_OSCILLATORTYPE_HSE)
 8001fba:	687b      	ldr	r3, [r7, #4]
 8001fbc:	681b      	ldr	r3, [r3, #0]
 8001fbe:	f003 0301 	and.w	r3, r3, #1
 8001fc2:	2b00      	cmp	r3, #0
 8001fc4:	f000 8083 	beq.w	80020ce <HAL_RCC_OscConfig+0x126>
  {
    /* Check the parameters */
    assert_param(IS_RCC_HSE(RCC_OscInitStruct->HSEState));
    /* When the HSE is used as system clock or clock source for PLL in these cases HSE will not disabled */
#if defined(STM32F446xx)
    if ((__HAL_RCC_GET_SYSCLK_SOURCE() == RCC_CFGR_SWS_HSE)
 8001fc8:	4b94      	ldr	r3, [pc, #592]	@ (800221c <HAL_RCC_OscConfig+0x274>)
 8001fca:	689b      	ldr	r3, [r3, #8]
 8001fcc:	f003 030c 	and.w	r3, r3, #12
 8001fd0:	2b04      	cmp	r3, #4
 8001fd2:	d019      	beq.n	8002008 <HAL_RCC_OscConfig+0x60>
        || \
        ((__HAL_RCC_GET_SYSCLK_SOURCE() == RCC_CFGR_SWS_PLL) && ((RCC->PLLCFGR & RCC_PLLCFGR_PLLSRC) == RCC_PLLCFGR_PLLSRC_HSE)) || \
 8001fd4:	4b91      	ldr	r3, [pc, #580]	@ (800221c <HAL_RCC_OscConfig+0x274>)
 8001fd6:	689b      	ldr	r3, [r3, #8]
 8001fd8:	f003 030c 	and.w	r3, r3, #12
        || \
 8001fdc:	2b08      	cmp	r3, #8
 8001fde:	d106      	bne.n	8001fee <HAL_RCC_OscConfig+0x46>
        ((__HAL_RCC_GET_SYSCLK_SOURCE() == RCC_CFGR_SWS_PLL) && ((RCC->PLLCFGR & RCC_PLLCFGR_PLLSRC) == RCC_PLLCFGR_PLLSRC_HSE)) || \
 8001fe0:	4b8e      	ldr	r3, [pc, #568]	@ (800221c <HAL_RCC_OscConfig+0x274>)
 8001fe2:	685b      	ldr	r3, [r3, #4]
 8001fe4:	f403 0380 	and.w	r3, r3, #4194304	@ 0x400000
 8001fe8:	f5b3 0f80 	cmp.w	r3, #4194304	@ 0x400000
 8001fec:	d00c      	beq.n	8002008 <HAL_RCC_OscConfig+0x60>
        ((__HAL_RCC_GET_SYSCLK_SOURCE() == RCC_CFGR_SWS_PLLR) && ((RCC->PLLCFGR & RCC_PLLCFGR_PLLSRC) == RCC_PLLCFGR_PLLSRC_HSE)))
 8001fee:	4b8b      	ldr	r3, [pc, #556]	@ (800221c <HAL_RCC_OscConfig+0x274>)
 8001ff0:	689b      	ldr	r3, [r3, #8]
 8001ff2:	f003 030c 	and.w	r3, r3, #12
        ((__HAL_RCC_GET_SYSCLK_SOURCE() == RCC_CFGR_SWS_PLL) && ((RCC->PLLCFGR & RCC_PLLCFGR_PLLSRC) == RCC_PLLCFGR_PLLSRC_HSE)) || \
 8001ff6:	2b0c      	cmp	r3, #12
 8001ff8:	d112      	bne.n	8002020 <HAL_RCC_OscConfig+0x78>
        ((__HAL_RCC_GET_SYSCLK_SOURCE() == RCC_CFGR_SWS_PLLR) && ((RCC->PLLCFGR & RCC_PLLCFGR_PLLSRC) == RCC_PLLCFGR_PLLSRC_HSE)))
 8001ffa:	4b88      	ldr	r3, [pc, #544]	@ (800221c <HAL_RCC_OscConfig+0x274>)
 8001ffc:	685b      	ldr	r3, [r3, #4]
 8001ffe:	f403 0380 	and.w	r3, r3, #4194304	@ 0x400000
 8002002:	f5b3 0f80 	cmp.w	r3, #4194304	@ 0x400000
 8002006:	d10b      	bne.n	8002020 <HAL_RCC_OscConfig+0x78>
    if ((__HAL_RCC_GET_SYSCLK_SOURCE() == RCC_CFGR_SWS_HSE)
        || \
        ((__HAL_RCC_GET_SYSCLK_SOURCE() == RCC_CFGR_SWS_PLL) && ((RCC->PLLCFGR & RCC_PLLCFGR_PLLSRC) == RCC_PLLCFGR_PLLSRC_HSE)))
#endif /* STM32F446xx */
    {
      if ((__HAL_RCC_GET_FLAG(RCC_FLAG_HSERDY) != RESET) && (RCC_OscInitStruct->HSEState == RCC_HSE_OFF))
 8002008:	4b84      	ldr	r3, [pc, #528]	@ (800221c <HAL_RCC_OscConfig+0x274>)
 800200a:	681b      	ldr	r3, [r3, #0]
 800200c:	f403 3300 	and.w	r3, r3, #131072	@ 0x20000
 8002010:	2b00      	cmp	r3, #0
 8002012:	d05b      	beq.n	80020cc <HAL_RCC_OscConfig+0x124>
 8002014:	687b      	ldr	r3, [r7, #4]
 8002016:	685b      	ldr	r3, [r3, #4]
 8002018:	2b00      	cmp	r3, #0
 800201a:	d157      	bne.n	80020cc <HAL_RCC_OscConfig+0x124>
      {
        return HAL_ERROR;
 800201c:	2301      	movs	r3, #1
 800201e:	e25a      	b.n	80024d6 <HAL_RCC_OscConfig+0x52e>
      }
    }
    else
    {
      /* Set the new HSE configuration ---------------------------------------*/
      __HAL_RCC_HSE_CONFIG(RCC_OscInitStruct->HSEState);
 8002020:	687b      	ldr	r3, [r7, #4]
 8002022:	685b      	ldr	r3, [r3, #4]
 8002024:	f5b3 3f80 	cmp.w	r3, #65536	@ 0x10000
 8002028:	d106      	bne.n	8002038 <HAL_RCC_OscConfig+0x90>
 800202a:	4b7c      	ldr	r3, [pc, #496]	@ (800221c <HAL_RCC_OscConfig+0x274>)
 800202c:	681b      	ldr	r3, [r3, #0]
 800202e:	4a7b      	ldr	r2, [pc, #492]	@ (800221c <HAL_RCC_OscConfig+0x274>)
 8002030:	f443 3380 	orr.w	r3, r3, #65536	@ 0x10000
 8002034:	6013      	str	r3, [r2, #0]
 8002036:	e01d      	b.n	8002074 <HAL_RCC_OscConfig+0xcc>
 8002038:	687b      	ldr	r3, [r7, #4]
 800203a:	685b      	ldr	r3, [r3, #4]
 800203c:	f5b3 2fa0 	cmp.w	r3, #327680	@ 0x50000
 8002040:	d10c      	bne.n	800205c <HAL_RCC_OscConfig+0xb4>
 8002042:	4b76      	ldr	r3, [pc, #472]	@ (800221c <HAL_RCC_OscConfig+0x274>)
 8002044:	681b      	ldr	r3, [r3, #0]
 8002046:	4a75      	ldr	r2, [pc, #468]	@ (800221c <HAL_RCC_OscConfig+0x274>)
 8002048:	f443 2380 	orr.w	r3, r3, #262144	@ 0x40000
 800204c:	6013      	str	r3, [r2, #0]
 800204e:	4b73      	ldr	r3, [pc, #460]	@ (800221c <HAL_RCC_OscConfig+0x274>)
 8002050:	681b      	ldr	r3, [r3, #0]
 8002052:	4a72      	ldr	r2, [pc, #456]	@ (800221c <HAL_RCC_OscConfig+0x274>)
 8002054:	f443 3380 	orr.w	r3, r3, #65536	@ 0x10000
 8002058:	6013      	str	r3, [r2, #0]
 800205a:	e00b      	b.n	8002074 <HAL_RCC_OscConfig+0xcc>
 800205c:	4b6f      	ldr	r3, [pc, #444]	@ (800221c <HAL_RCC_OscConfig+0x274>)
 800205e:	681b      	ldr	r3, [r3, #0]
 8002060:	4a6e      	ldr	r2, [pc, #440]	@ (800221c <HAL_RCC_OscConfig+0x274>)
 8002062:	f423 3380 	bic.w	r3, r3, #65536	@ 0x10000
 8002066:	6013      	str	r3, [r2, #0]
 8002068:	4b6c      	ldr	r3, [pc, #432]	@ (800221c <HAL_RCC_OscConfig+0x274>)
 800206a:	681b      	ldr	r3, [r3, #0]
 800206c:	4a6b      	ldr	r2, [pc, #428]	@ (800221c <HAL_RCC_OscConfig+0x274>)
 800206e:	f423 2380 	bic.w	r3, r3, #262144	@ 0x40000
 8002072:	6013      	str	r3, [r2, #0]

      /* Check the HSE State */
      if ((RCC_OscInitStruct->HSEState) != RCC_HSE_OFF)
 8002074:	687b      	ldr	r3, [r7, #4]
 8002076:	685b      	ldr	r3, [r3, #4]
 8002078:	2b00      	cmp	r3, #0
 800207a:	d013      	beq.n	80020a4 <HAL_RCC_OscConfig+0xfc>
      {
        /* Get Start Tick*/
        tickstart = HAL_GetTick();
 800207c:	f7ff f90a 	bl	8001294 <HAL_GetTick>
 8002080:	6138      	str	r0, [r7, #16]

        /* Wait till HSE is ready */
        while (__HAL_RCC_GET_FLAG(RCC_FLAG_HSERDY) == RESET)
 8002082:	e008      	b.n	8002096 <HAL_RCC_OscConfig+0xee>
        {
          if ((HAL_GetTick() - tickstart) > HSE_TIMEOUT_VALUE)
 8002084:	f7ff f906 	bl	8001294 <HAL_GetTick>
 8002088:	4602      	mov	r2, r0
 800208a:	693b      	ldr	r3, [r7, #16]
 800208c:	1ad3      	subs	r3, r2, r3
 800208e:	2b64      	cmp	r3, #100	@ 0x64
 8002090:	d901      	bls.n	8002096 <HAL_RCC_OscConfig+0xee>
          {
            return HAL_TIMEOUT;
 8002092:	2303      	movs	r3, #3
 8002094:	e21f      	b.n	80024d6 <HAL_RCC_OscConfig+0x52e>
        while (__HAL_RCC_GET_FLAG(RCC_FLAG_HSERDY) == RESET)
 8002096:	4b61      	ldr	r3, [pc, #388]	@ (800221c <HAL_RCC_OscConfig+0x274>)
 8002098:	681b      	ldr	r3, [r3, #0]
 800209a:	f403 3300 	and.w	r3, r3, #131072	@ 0x20000
 800209e:	2b00      	cmp	r3, #0
 80020a0:	d0f0      	beq.n	8002084 <HAL_RCC_OscConfig+0xdc>
 80020a2:	e014      	b.n	80020ce <HAL_RCC_OscConfig+0x126>
        }
      }
      else
      {
        /* Get Start Tick*/
        tickstart = HAL_GetTick();
 80020a4:	f7ff f8f6 	bl	8001294 <HAL_GetTick>
 80020a8:	6138      	str	r0, [r7, #16]

        /* Wait till HSE is bypassed or disabled */
        while (__HAL_RCC_GET_FLAG(RCC_FLAG_HSERDY) != RESET)
 80020aa:	e008      	b.n	80020be <HAL_RCC_OscConfig+0x116>
        {
          if ((HAL_GetTick() - tickstart) > HSE_TIMEOUT_VALUE)
 80020ac:	f7ff f8f2 	bl	8001294 <HAL_GetTick>
 80020b0:	4602      	mov	r2, r0
 80020b2:	693b      	ldr	r3, [r7, #16]
 80020b4:	1ad3      	subs	r3, r2, r3
 80020b6:	2b64      	cmp	r3, #100	@ 0x64
 80020b8:	d901      	bls.n	80020be <HAL_RCC_OscConfig+0x116>
          {
            return HAL_TIMEOUT;
 80020ba:	2303      	movs	r3, #3
 80020bc:	e20b      	b.n	80024d6 <HAL_RCC_OscConfig+0x52e>
        while (__HAL_RCC_GET_FLAG(RCC_FLAG_HSERDY) != RESET)
 80020be:	4b57      	ldr	r3, [pc, #348]	@ (800221c <HAL_RCC_OscConfig+0x274>)
 80020c0:	681b      	ldr	r3, [r3, #0]
 80020c2:	f403 3300 	and.w	r3, r3, #131072	@ 0x20000
 80020c6:	2b00      	cmp	r3, #0
 80020c8:	d1f0      	bne.n	80020ac <HAL_RCC_OscConfig+0x104>
 80020ca:	e000      	b.n	80020ce <HAL_RCC_OscConfig+0x126>
      if ((__HAL_RCC_GET_FLAG(RCC_FLAG_HSERDY) != RESET) && (RCC_OscInitStruct->HSEState == RCC_HSE_OFF))
 80020cc:	bf00      	nop
        }
      }
    }
  }
  /*----------------------------- HSI Configuration --------------------------*/
  if (((RCC_OscInitStruct->OscillatorType) & RCC_OSCILLATORTYPE_HSI) == RCC_OSCILLATORTYPE_HSI)
 80020ce:	687b      	ldr	r3, [r7, #4]
 80020d0:	681b      	ldr	r3, [r3, #0]
 80020d2:	f003 0302 	and.w	r3, r3, #2
 80020d6:	2b00      	cmp	r3, #0
 80020d8:	d06f      	beq.n	80021ba <HAL_RCC_OscConfig+0x212>
    assert_param(IS_RCC_HSI(RCC_OscInitStruct->HSIState));
    assert_param(IS_RCC_CALIBRATION_VALUE(RCC_OscInitStruct->HSICalibrationValue));

    /* Check if HSI is used as system clock or as PLL source when PLL is selected as system clock */
#if defined(STM32F446xx)
    if ((__HAL_RCC_GET_SYSCLK_SOURCE() == RCC_CFGR_SWS_HSI)
 80020da:	4b50      	ldr	r3, [pc, #320]	@ (800221c <HAL_RCC_OscConfig+0x274>)
 80020dc:	689b      	ldr	r3, [r3, #8]
 80020de:	f003 030c 	and.w	r3, r3, #12
 80020e2:	2b00      	cmp	r3, #0
 80020e4:	d017      	beq.n	8002116 <HAL_RCC_OscConfig+0x16e>
        || \
        ((__HAL_RCC_GET_SYSCLK_SOURCE() == RCC_CFGR_SWS_PLL) && ((RCC->PLLCFGR & RCC_PLLCFGR_PLLSRC) == RCC_PLLCFGR_PLLSRC_HSI)) || \
 80020e6:	4b4d      	ldr	r3, [pc, #308]	@ (800221c <HAL_RCC_OscConfig+0x274>)
 80020e8:	689b      	ldr	r3, [r3, #8]
 80020ea:	f003 030c 	and.w	r3, r3, #12
        || \
 80020ee:	2b08      	cmp	r3, #8
 80020f0:	d105      	bne.n	80020fe <HAL_RCC_OscConfig+0x156>
        ((__HAL_RCC_GET_SYSCLK_SOURCE() == RCC_CFGR_SWS_PLL) && ((RCC->PLLCFGR & RCC_PLLCFGR_PLLSRC) == RCC_PLLCFGR_PLLSRC_HSI)) || \
 80020f2:	4b4a      	ldr	r3, [pc, #296]	@ (800221c <HAL_RCC_OscConfig+0x274>)
 80020f4:	685b      	ldr	r3, [r3, #4]
 80020f6:	f403 0380 	and.w	r3, r3, #4194304	@ 0x400000
 80020fa:	2b00      	cmp	r3, #0
 80020fc:	d00b      	beq.n	8002116 <HAL_RCC_OscConfig+0x16e>
        ((__HAL_RCC_GET_SYSCLK_SOURCE() == RCC_CFGR_SWS_PLLR) && ((RCC->PLLCFGR & RCC_PLLCFGR_PLLSRC) == RCC_PLLCFGR_PLLSRC_HSI)))
 80020fe:	4b47      	ldr	r3, [pc, #284]	@ (800221c <HAL_RCC_OscConfig+0x274>)
 8002100:	689b      	ldr	r3, [r3, #8]
 8002102:	f003 030c 	and.w	r3, r3, #12
        ((__HAL_RCC_GET_SYSCLK_SOURCE() == RCC_CFGR_SWS_PLL) && ((RCC->PLLCFGR & RCC_PLLCFGR_PLLSRC) == RCC_PLLCFGR_PLLSRC_HSI)) || \
 8002106:	2b0c      	cmp	r3, #12
 8002108:	d11c      	bne.n	8002144 <HAL_RCC_OscConfig+0x19c>
        ((__HAL_RCC_GET_SYSCLK_SOURCE() == RCC_CFGR_SWS_PLLR) && ((RCC->PLLCFGR & RCC_PLLCFGR_PLLSRC) == RCC_PLLCFGR_PLLSRC_HSI)))
 800210a:	4b44      	ldr	r3, [pc, #272]	@ (800221c <HAL_RCC_OscConfig+0x274>)
 800210c:	685b      	ldr	r3, [r3, #4]
 800210e:	f403 0380 	and.w	r3, r3, #4194304	@ 0x400000
 8002112:	2b00      	cmp	r3, #0
 8002114:	d116      	bne.n	8002144 <HAL_RCC_OscConfig+0x19c>
        || \
        ((__HAL_RCC_GET_SYSCLK_SOURCE() == RCC_CFGR_SWS_PLL) && ((RCC->PLLCFGR & RCC_PLLCFGR_PLLSRC) == RCC_PLLCFGR_PLLSRC_HSI)))
#endif /* STM32F446xx */
    {
      /* When HSI is used as system clock it will not disabled */
      if ((__HAL_RCC_GET_FLAG(RCC_FLAG_HSIRDY) != RESET) && (RCC_OscInitStruct->HSIState != RCC_HSI_ON))
 8002116:	4b41      	ldr	r3, [pc, #260]	@ (800221c <HAL_RCC_OscConfig+0x274>)
 8002118:	681b      	ldr	r3, [r3, #0]
 800211a:	f003 0302 	and.w	r3, r3, #2
 800211e:	2b00      	cmp	r3, #0
 8002120:	d005      	beq.n	800212e <HAL_RCC_OscConfig+0x186>
 8002122:	687b      	ldr	r3, [r7, #4]
 8002124:	68db      	ldr	r3, [r3, #12]
 8002126:	2b01      	cmp	r3, #1
 8002128:	d001      	beq.n	800212e <HAL_RCC_OscConfig+0x186>
      {
        return HAL_ERROR;
 800212a:	2301      	movs	r3, #1
 800212c:	e1d3      	b.n	80024d6 <HAL_RCC_OscConfig+0x52e>
      }
      /* Otherwise, just the calibration is allowed */
      else
      {
        /* Adjusts the Internal High Speed oscillator (HSI) calibration value.*/
        __HAL_RCC_HSI_CALIBRATIONVALUE_ADJUST(RCC_OscInitStruct->HSICalibrationValue);
 800212e:	4b3b      	ldr	r3, [pc, #236]	@ (800221c <HAL_RCC_OscConfig+0x274>)
 8002130:	681b      	ldr	r3, [r3, #0]
 8002132:	f023 02f8 	bic.w	r2, r3, #248	@ 0xf8
 8002136:	687b      	ldr	r3, [r7, #4]
 8002138:	691b      	ldr	r3, [r3, #16]
 800213a:	00db      	lsls	r3, r3, #3
 800213c:	4937      	ldr	r1, [pc, #220]	@ (800221c <HAL_RCC_OscConfig+0x274>)
 800213e:	4313      	orrs	r3, r2
 8002140:	600b      	str	r3, [r1, #0]
      if ((__HAL_RCC_GET_FLAG(RCC_FLAG_HSIRDY) != RESET) && (RCC_OscInitStruct->HSIState != RCC_HSI_ON))
 8002142:	e03a      	b.n	80021ba <HAL_RCC_OscConfig+0x212>
      }
    }
    else
    {
      /* Check the HSI State */
      if ((RCC_OscInitStruct->HSIState) != RCC_HSI_OFF)
 8002144:	687b      	ldr	r3, [r7, #4]
 8002146:	68db      	ldr	r3, [r3, #12]
 8002148:	2b00      	cmp	r3, #0
 800214a:	d020      	beq.n	800218e <HAL_RCC_OscConfig+0x1e6>
      {
        /* Enable the Internal High Speed oscillator (HSI). */
        __HAL_RCC_HSI_ENABLE();
 800214c:	4b34      	ldr	r3, [pc, #208]	@ (8002220 <HAL_RCC_OscConfig+0x278>)
 800214e:	2201      	movs	r2, #1
 8002150:	601a      	str	r2, [r3, #0]

        /* Get Start Tick*/
        tickstart = HAL_GetTick();
 8002152:	f7ff f89f 	bl	8001294 <HAL_GetTick>
 8002156:	6138      	str	r0, [r7, #16]

        /* Wait till HSI is ready */
        while (__HAL_RCC_GET_FLAG(RCC_FLAG_HSIRDY) == RESET)
 8002158:	e008      	b.n	800216c <HAL_RCC_OscConfig+0x1c4>
        {
          if ((HAL_GetTick() - tickstart) > HSI_TIMEOUT_VALUE)
 800215a:	f7ff f89b 	bl	8001294 <HAL_GetTick>
 800215e:	4602      	mov	r2, r0
 8002160:	693b      	ldr	r3, [r7, #16]
 8002162:	1ad3      	subs	r3, r2, r3
 8002164:	2b02      	cmp	r3, #2
 8002166:	d901      	bls.n	800216c <HAL_RCC_OscConfig+0x1c4>
          {
            return HAL_TIMEOUT;
 8002168:	2303      	movs	r3, #3
 800216a:	e1b4      	b.n	80024d6 <HAL_RCC_OscConfig+0x52e>
        while (__HAL_RCC_GET_FLAG(RCC_FLAG_HSIRDY) == RESET)
 800216c:	4b2b      	ldr	r3, [pc, #172]	@ (800221c <HAL_RCC_OscConfig+0x274>)
 800216e:	681b      	ldr	r3, [r3, #0]
 8002170:	f003 0302 	and.w	r3, r3, #2
 8002174:	2b00      	cmp	r3, #0
 8002176:	d0f0      	beq.n	800215a <HAL_RCC_OscConfig+0x1b2>
          }
        }

        /* Adjusts the Internal High Speed oscillator (HSI) calibration value.*/
        __HAL_RCC_HSI_CALIBRATIONVALUE_ADJUST(RCC_OscInitStruct->HSICalibrationValue);
 8002178:	4b28      	ldr	r3, [pc, #160]	@ (800221c <HAL_RCC_OscConfig+0x274>)
 800217a:	681b      	ldr	r3, [r3, #0]
 800217c:	f023 02f8 	bic.w	r2, r3, #248	@ 0xf8
 8002180:	687b      	ldr	r3, [r7, #4]
 8002182:	691b      	ldr	r3, [r3, #16]
 8002184:	00db      	lsls	r3, r3, #3
 8002186:	4925      	ldr	r1, [pc, #148]	@ (800221c <HAL_RCC_OscConfig+0x274>)
 8002188:	4313      	orrs	r3, r2
 800218a:	600b      	str	r3, [r1, #0]
 800218c:	e015      	b.n	80021ba <HAL_RCC_OscConfig+0x212>
      }
      else
      {
        /* Disable the Internal High Speed oscillator (HSI). */
        __HAL_RCC_HSI_DISABLE();
 800218e:	4b24      	ldr	r3, [pc, #144]	@ (8002220 <HAL_RCC_OscConfig+0x278>)
 8002190:	2200      	movs	r2, #0
 8002192:	601a      	str	r2, [r3, #0]

        /* Get Start Tick*/
        tickstart = HAL_GetTick();
 8002194:	f7ff f87e 	bl	8001294 <HAL_GetTick>
 8002198:	6138      	str	r0, [r7, #16]

        /* Wait till HSI is ready */
        while (__HAL_RCC_GET_FLAG(RCC_FLAG_HSIRDY) != RESET)
 800219a:	e008      	b.n	80021ae <HAL_RCC_OscConfig+0x206>
        {
          if ((HAL_GetTick() - tickstart) > HSI_TIMEOUT_VALUE)
 800219c:	f7ff f87a 	bl	8001294 <HAL_GetTick>
 80021a0:	4602      	mov	r2, r0
 80021a2:	693b      	ldr	r3, [r7, #16]
 80021a4:	1ad3      	subs	r3, r2, r3
 80021a6:	2b02      	cmp	r3, #2
 80021a8:	d901      	bls.n	80021ae <HAL_RCC_OscConfig+0x206>
          {
            return HAL_TIMEOUT;
 80021aa:	2303      	movs	r3, #3
 80021ac:	e193      	b.n	80024d6 <HAL_RCC_OscConfig+0x52e>
        while (__HAL_RCC_GET_FLAG(RCC_FLAG_HSIRDY) != RESET)
 80021ae:	4b1b      	ldr	r3, [pc, #108]	@ (800221c <HAL_RCC_OscConfig+0x274>)
 80021b0:	681b      	ldr	r3, [r3, #0]
 80021b2:	f003 0302 	and.w	r3, r3, #2
 80021b6:	2b00      	cmp	r3, #0
 80021b8:	d1f0      	bne.n	800219c <HAL_RCC_OscConfig+0x1f4>
        }
      }
    }
  }
  /*------------------------------ LSI Configuration -------------------------*/
  if (((RCC_OscInitStruct->OscillatorType) & RCC_OSCILLATORTYPE_LSI) == RCC_OSCILLATORTYPE_LSI)
 80021ba:	687b      	ldr	r3, [r7, #4]
 80021bc:	681b      	ldr	r3, [r3, #0]
 80021be:	f003 0308 	and.w	r3, r3, #8
 80021c2:	2b00      	cmp	r3, #0
 80021c4:	d036      	beq.n	8002234 <HAL_RCC_OscConfig+0x28c>
  {
    /* Check the parameters */
    assert_param(IS_RCC_LSI(RCC_OscInitStruct->LSIState));

    /* Check the LSI State */
    if ((RCC_OscInitStruct->LSIState) != RCC_LSI_OFF)
 80021c6:	687b      	ldr	r3, [r7, #4]
 80021c8:	695b      	ldr	r3, [r3, #20]
 80021ca:	2b00      	cmp	r3, #0
 80021cc:	d016      	beq.n	80021fc <HAL_RCC_OscConfig+0x254>
    {
      /* Enable the Internal Low Speed oscillator (LSI). */
      __HAL_RCC_LSI_ENABLE();
 80021ce:	4b15      	ldr	r3, [pc, #84]	@ (8002224 <HAL_RCC_OscConfig+0x27c>)
 80021d0:	2201      	movs	r2, #1
 80021d2:	601a      	str	r2, [r3, #0]

      /* Get Start Tick*/
      tickstart = HAL_GetTick();
 80021d4:	f7ff f85e 	bl	8001294 <HAL_GetTick>
 80021d8:	6138      	str	r0, [r7, #16]

      /* Wait till LSI is ready */
      while (__HAL_RCC_GET_FLAG(RCC_FLAG_LSIRDY) == RESET)
 80021da:	e008      	b.n	80021ee <HAL_RCC_OscConfig+0x246>
      {
        if ((HAL_GetTick() - tickstart) > LSI_TIMEOUT_VALUE)
 80021dc:	f7ff f85a 	bl	8001294 <HAL_GetTick>
 80021e0:	4602      	mov	r2, r0
 80021e2:	693b      	ldr	r3, [r7, #16]
 80021e4:	1ad3      	subs	r3, r2, r3
 80021e6:	2b02      	cmp	r3, #2
 80021e8:	d901      	bls.n	80021ee <HAL_RCC_OscConfig+0x246>
        {
          return HAL_TIMEOUT;
 80021ea:	2303      	movs	r3, #3
 80021ec:	e173      	b.n	80024d6 <HAL_RCC_OscConfig+0x52e>
      while (__HAL_RCC_GET_FLAG(RCC_FLAG_LSIRDY) == RESET)
 80021ee:	4b0b      	ldr	r3, [pc, #44]	@ (800221c <HAL_RCC_OscConfig+0x274>)
 80021f0:	6f5b      	ldr	r3, [r3, #116]	@ 0x74
 80021f2:	f003 0302 	and.w	r3, r3, #2
 80021f6:	2b00      	cmp	r3, #0
 80021f8:	d0f0      	beq.n	80021dc <HAL_RCC_OscConfig+0x234>
 80021fa:	e01b      	b.n	8002234 <HAL_RCC_OscConfig+0x28c>
      }
    }
    else
    {
      /* Disable the Internal Low Speed oscillator (LSI). */
      __HAL_RCC_LSI_DISABLE();
 80021fc:	4b09      	ldr	r3, [pc, #36]	@ (8002224 <HAL_RCC_OscConfig+0x27c>)
 80021fe:	2200      	movs	r2, #0
 8002200:	601a      	str	r2, [r3, #0]

      /* Get Start Tick*/
      tickstart = HAL_GetTick();
 8002202:	f7ff f847 	bl	8001294 <HAL_GetTick>
 8002206:	6138      	str	r0, [r7, #16]

      /* Wait till LSI is ready */
      while (__HAL_RCC_GET_FLAG(RCC_FLAG_LSIRDY) != RESET)
 8002208:	e00e      	b.n	8002228 <HAL_RCC_OscConfig+0x280>
      {
        if ((HAL_GetTick() - tickstart) > LSI_TIMEOUT_VALUE)
 800220a:	f7ff f843 	bl	8001294 <HAL_GetTick>
 800220e:	4602      	mov	r2, r0
 8002210:	693b      	ldr	r3, [r7, #16]
 8002212:	1ad3      	subs	r3, r2, r3
 8002214:	2b02      	cmp	r3, #2
 8002216:	d907      	bls.n	8002228 <HAL_RCC_OscConfig+0x280>
        {
          return HAL_TIMEOUT;
 8002218:	2303      	movs	r3, #3
 800221a:	e15c      	b.n	80024d6 <HAL_RCC_OscConfig+0x52e>
 800221c:	40023800 	.word	0x40023800
 8002220:	42470000 	.word	0x42470000
 8002224:	42470e80 	.word	0x42470e80
      while (__HAL_RCC_GET_FLAG(RCC_FLAG_LSIRDY) != RESET)
 8002228:	4b8a      	ldr	r3, [pc, #552]	@ (8002454 <HAL_RCC_OscConfig+0x4ac>)
 800222a:	6f5b      	ldr	r3, [r3, #116]	@ 0x74
 800222c:	f003 0302 	and.w	r3, r3, #2
 8002230:	2b00      	cmp	r3, #0
 8002232:	d1ea      	bne.n	800220a <HAL_RCC_OscConfig+0x262>
        }
      }
    }
  }
  /*------------------------------ LSE Configuration -------------------------*/
  if (((RCC_OscInitStruct->OscillatorType) & RCC_OSCILLATORTYPE_LSE) == RCC_OSCILLATORTYPE_LSE)
 8002234:	687b      	ldr	r3, [r7, #4]
 8002236:	681b      	ldr	r3, [r3, #0]
 8002238:	f003 0304 	and.w	r3, r3, #4
 800223c:	2b00      	cmp	r3, #0
 800223e:	f000 8097 	beq.w	8002370 <HAL_RCC_OscConfig+0x3c8>
  {
    FlagStatus       pwrclkchanged = RESET;
 8002242:	2300      	movs	r3, #0
 8002244:	75fb      	strb	r3, [r7, #23]
    /* Check the parameters */
    assert_param(IS_RCC_LSE(RCC_OscInitStruct->LSEState));

    /* Update LSE configuration in Backup Domain control register    */
    /* Requires to enable write access to Backup Domain of necessary */
    if (__HAL_RCC_PWR_IS_CLK_DISABLED())
 8002246:	4b83      	ldr	r3, [pc, #524]	@ (8002454 <HAL_RCC_OscConfig+0x4ac>)
 8002248:	6c1b      	ldr	r3, [r3, #64]	@ 0x40
 800224a:	f003 5380 	and.w	r3, r3, #268435456	@ 0x10000000
 800224e:	2b00      	cmp	r3, #0
 8002250:	d10f      	bne.n	8002272 <HAL_RCC_OscConfig+0x2ca>
    {
      __HAL_RCC_PWR_CLK_ENABLE();
 8002252:	2300      	movs	r3, #0
 8002254:	60bb      	str	r3, [r7, #8]
 8002256:	4b7f      	ldr	r3, [pc, #508]	@ (8002454 <HAL_RCC_OscConfig+0x4ac>)
 8002258:	6c1b      	ldr	r3, [r3, #64]	@ 0x40
 800225a:	4a7e      	ldr	r2, [pc, #504]	@ (8002454 <HAL_RCC_OscConfig+0x4ac>)
 800225c:	f043 5380 	orr.w	r3, r3, #268435456	@ 0x10000000
 8002260:	6413      	str	r3, [r2, #64]	@ 0x40
 8002262:	4b7c      	ldr	r3, [pc, #496]	@ (8002454 <HAL_RCC_OscConfig+0x4ac>)
 8002264:	6c1b      	ldr	r3, [r3, #64]	@ 0x40
 8002266:	f003 5380 	and.w	r3, r3, #268435456	@ 0x10000000
 800226a:	60bb      	str	r3, [r7, #8]
 800226c:	68bb      	ldr	r3, [r7, #8]
      pwrclkchanged = SET;
 800226e:	2301      	movs	r3, #1
 8002270:	75fb      	strb	r3, [r7, #23]
    }

    if (HAL_IS_BIT_CLR(PWR->CR, PWR_CR_DBP))
 8002272:	4b79      	ldr	r3, [pc, #484]	@ (8002458 <HAL_RCC_OscConfig+0x4b0>)
 8002274:	681b      	ldr	r3, [r3, #0]
 8002276:	f403 7380 	and.w	r3, r3, #256	@ 0x100
 800227a:	2b00      	cmp	r3, #0
 800227c:	d118      	bne.n	80022b0 <HAL_RCC_OscConfig+0x308>
    {
      /* Enable write access to Backup domain */
      SET_BIT(PWR->CR, PWR_CR_DBP);
 800227e:	4b76      	ldr	r3, [pc, #472]	@ (8002458 <HAL_RCC_OscConfig+0x4b0>)
 8002280:	681b      	ldr	r3, [r3, #0]
 8002282:	4a75      	ldr	r2, [pc, #468]	@ (8002458 <HAL_RCC_OscConfig+0x4b0>)
 8002284:	f443 7380 	orr.w	r3, r3, #256	@ 0x100
 8002288:	6013      	str	r3, [r2, #0]

      /* Wait for Backup domain Write protection disable */
      tickstart = HAL_GetTick();
 800228a:	f7ff f803 	bl	8001294 <HAL_GetTick>
 800228e:	6138      	str	r0, [r7, #16]

      while (HAL_IS_BIT_CLR(PWR->CR, PWR_CR_DBP))
 8002290:	e008      	b.n	80022a4 <HAL_RCC_OscConfig+0x2fc>
      {
        if ((HAL_GetTick() - tickstart) > RCC_DBP_TIMEOUT_VALUE)
 8002292:	f7fe ffff 	bl	8001294 <HAL_GetTick>
 8002296:	4602      	mov	r2, r0
 8002298:	693b      	ldr	r3, [r7, #16]
 800229a:	1ad3      	subs	r3, r2, r3
 800229c:	2b02      	cmp	r3, #2
 800229e:	d901      	bls.n	80022a4 <HAL_RCC_OscConfig+0x2fc>
        {
          return HAL_TIMEOUT;
 80022a0:	2303      	movs	r3, #3
 80022a2:	e118      	b.n	80024d6 <HAL_RCC_OscConfig+0x52e>
      while (HAL_IS_BIT_CLR(PWR->CR, PWR_CR_DBP))
 80022a4:	4b6c      	ldr	r3, [pc, #432]	@ (8002458 <HAL_RCC_OscConfig+0x4b0>)
 80022a6:	681b      	ldr	r3, [r3, #0]
 80022a8:	f403 7380 	and.w	r3, r3, #256	@ 0x100
 80022ac:	2b00      	cmp	r3, #0
 80022ae:	d0f0      	beq.n	8002292 <HAL_RCC_OscConfig+0x2ea>
        }
      }
    }

    /* Set the new LSE configuration -----------------------------------------*/
    __HAL_RCC_LSE_CONFIG(RCC_OscInitStruct->LSEState);
 80022b0:	687b      	ldr	r3, [r7, #4]
 80022b2:	689b      	ldr	r3, [r3, #8]
 80022b4:	2b01      	cmp	r3, #1
 80022b6:	d106      	bne.n	80022c6 <HAL_RCC_OscConfig+0x31e>
 80022b8:	4b66      	ldr	r3, [pc, #408]	@ (8002454 <HAL_RCC_OscConfig+0x4ac>)
 80022ba:	6f1b      	ldr	r3, [r3, #112]	@ 0x70
 80022bc:	4a65      	ldr	r2, [pc, #404]	@ (8002454 <HAL_RCC_OscConfig+0x4ac>)
 80022be:	f043 0301 	orr.w	r3, r3, #1
 80022c2:	6713      	str	r3, [r2, #112]	@ 0x70
 80022c4:	e01c      	b.n	8002300 <HAL_RCC_OscConfig+0x358>
 80022c6:	687b      	ldr	r3, [r7, #4]
 80022c8:	689b      	ldr	r3, [r3, #8]
 80022ca:	2b05      	cmp	r3, #5
 80022cc:	d10c      	bne.n	80022e8 <HAL_RCC_OscConfig+0x340>
 80022ce:	4b61      	ldr	r3, [pc, #388]	@ (8002454 <HAL_RCC_OscConfig+0x4ac>)
 80022d0:	6f1b      	ldr	r3, [r3, #112]	@ 0x70
 80022d2:	4a60      	ldr	r2, [pc, #384]	@ (8002454 <HAL_RCC_OscConfig+0x4ac>)
 80022d4:	f043 0304 	orr.w	r3, r3, #4
 80022d8:	6713      	str	r3, [r2, #112]	@ 0x70
 80022da:	4b5e      	ldr	r3, [pc, #376]	@ (8002454 <HAL_RCC_OscConfig+0x4ac>)
 80022dc:	6f1b      	ldr	r3, [r3, #112]	@ 0x70
 80022de:	4a5d      	ldr	r2, [pc, #372]	@ (8002454 <HAL_RCC_OscConfig+0x4ac>)
 80022e0:	f043 0301 	orr.w	r3, r3, #1
 80022e4:	6713      	str	r3, [r2, #112]	@ 0x70
 80022e6:	e00b      	b.n	8002300 <HAL_RCC_OscConfig+0x358>
 80022e8:	4b5a      	ldr	r3, [pc, #360]	@ (8002454 <HAL_RCC_OscConfig+0x4ac>)
 80022ea:	6f1b      	ldr	r3, [r3, #112]	@ 0x70
 80022ec:	4a59      	ldr	r2, [pc, #356]	@ (8002454 <HAL_RCC_OscConfig+0x4ac>)
 80022ee:	f023 0301 	bic.w	r3, r3, #1
 80022f2:	6713      	str	r3, [r2, #112]	@ 0x70
 80022f4:	4b57      	ldr	r3, [pc, #348]	@ (8002454 <HAL_RCC_OscConfig+0x4ac>)
 80022f6:	6f1b      	ldr	r3, [r3, #112]	@ 0x70
 80022f8:	4a56      	ldr	r2, [pc, #344]	@ (8002454 <HAL_RCC_OscConfig+0x4ac>)
 80022fa:	f023 0304 	bic.w	r3, r3, #4
 80022fe:	6713      	str	r3, [r2, #112]	@ 0x70
    /* Check the LSE State */
    if ((RCC_OscInitStruct->LSEState) != RCC_LSE_OFF)
 8002300:	687b      	ldr	r3, [r7, #4]
 8002302:	689b      	ldr	r3, [r3, #8]
 8002304:	2b00      	cmp	r3, #0
 8002306:	d015      	beq.n	8002334 <HAL_RCC_OscConfig+0x38c>
    {
      /* Get Start Tick*/
      tickstart = HAL_GetTick();
 8002308:	f7fe ffc4 	bl	8001294 <HAL_GetTick>
 800230c:	6138      	str	r0, [r7, #16]

      /* Wait till LSE is ready */
      while (__HAL_RCC_GET_FLAG(RCC_FLAG_LSERDY) == RESET)
 800230e:	e00a      	b.n	8002326 <HAL_RCC_OscConfig+0x37e>
      {
        if ((HAL_GetTick() - tickstart) > RCC_LSE_TIMEOUT_VALUE)
 8002310:	f7fe ffc0 	bl	8001294 <HAL_GetTick>
 8002314:	4602      	mov	r2, r0
 8002316:	693b      	ldr	r3, [r7, #16]
 8002318:	1ad3      	subs	r3, r2, r3
 800231a:	f241 3288 	movw	r2, #5000	@ 0x1388
 800231e:	4293      	cmp	r3, r2
 8002320:	d901      	bls.n	8002326 <HAL_RCC_OscConfig+0x37e>
        {
          return HAL_TIMEOUT;
 8002322:	2303      	movs	r3, #3
 8002324:	e0d7      	b.n	80024d6 <HAL_RCC_OscConfig+0x52e>
      while (__HAL_RCC_GET_FLAG(RCC_FLAG_LSERDY) == RESET)
 8002326:	4b4b      	ldr	r3, [pc, #300]	@ (8002454 <HAL_RCC_OscConfig+0x4ac>)
 8002328:	6f1b      	ldr	r3, [r3, #112]	@ 0x70
 800232a:	f003 0302 	and.w	r3, r3, #2
 800232e:	2b00      	cmp	r3, #0
 8002330:	d0ee      	beq.n	8002310 <HAL_RCC_OscConfig+0x368>
 8002332:	e014      	b.n	800235e <HAL_RCC_OscConfig+0x3b6>
      }
    }
    else
    {
      /* Get Start Tick*/
      tickstart = HAL_GetTick();
 8002334:	f7fe ffae 	bl	8001294 <HAL_GetTick>
 8002338:	6138      	str	r0, [r7, #16]

      /* Wait till LSE is ready */
      while (__HAL_RCC_GET_FLAG(RCC_FLAG_LSERDY) != RESET)
 800233a:	e00a      	b.n	8002352 <HAL_RCC_OscConfig+0x3aa>
      {
        if ((HAL_GetTick() - tickstart) > RCC_LSE_TIMEOUT_VALUE)
 800233c:	f7fe ffaa 	bl	8001294 <HAL_GetTick>
 8002340:	4602      	mov	r2, r0
 8002342:	693b      	ldr	r3, [r7, #16]
 8002344:	1ad3      	subs	r3, r2, r3
 8002346:	f241 3288 	movw	r2, #5000	@ 0x1388
 800234a:	4293      	cmp	r3, r2
 800234c:	d901      	bls.n	8002352 <HAL_RCC_OscConfig+0x3aa>
        {
          return HAL_TIMEOUT;
 800234e:	2303      	movs	r3, #3
 8002350:	e0c1      	b.n	80024d6 <HAL_RCC_OscConfig+0x52e>
      while (__HAL_RCC_GET_FLAG(RCC_FLAG_LSERDY) != RESET)
 8002352:	4b40      	ldr	r3, [pc, #256]	@ (8002454 <HAL_RCC_OscConfig+0x4ac>)
 8002354:	6f1b      	ldr	r3, [r3, #112]	@ 0x70
 8002356:	f003 0302 	and.w	r3, r3, #2
 800235a:	2b00      	cmp	r3, #0
 800235c:	d1ee      	bne.n	800233c <HAL_RCC_OscConfig+0x394>
        }
      }
    }

    /* Restore clock configuration if changed */
    if (pwrclkchanged == SET)
 800235e:	7dfb      	ldrb	r3, [r7, #23]
 8002360:	2b01      	cmp	r3, #1
 8002362:	d105      	bne.n	8002370 <HAL_RCC_OscConfig+0x3c8>
    {
      __HAL_RCC_PWR_CLK_DISABLE();
 8002364:	4b3b      	ldr	r3, [pc, #236]	@ (8002454 <HAL_RCC_OscConfig+0x4ac>)
 8002366:	6c1b      	ldr	r3, [r3, #64]	@ 0x40
 8002368:	4a3a      	ldr	r2, [pc, #232]	@ (8002454 <HAL_RCC_OscConfig+0x4ac>)
 800236a:	f023 5380 	bic.w	r3, r3, #268435456	@ 0x10000000
 800236e:	6413      	str	r3, [r2, #64]	@ 0x40
    }
  }
  /*-------------------------------- PLL Configuration -----------------------*/
  /* Check the parameters */
  assert_param(IS_RCC_PLL(RCC_OscInitStruct->PLL.PLLState));
  if ((RCC_OscInitStruct->PLL.PLLState) != RCC_PLL_NONE)
 8002370:	687b      	ldr	r3, [r7, #4]
 8002372:	699b      	ldr	r3, [r3, #24]
 8002374:	2b00      	cmp	r3, #0
 8002376:	f000 80ad 	beq.w	80024d4 <HAL_RCC_OscConfig+0x52c>
  {
    /* Check if the PLL is used as system clock or not */
    if (__HAL_RCC_GET_SYSCLK_SOURCE() != RCC_CFGR_SWS_PLL)
 800237a:	4b36      	ldr	r3, [pc, #216]	@ (8002454 <HAL_RCC_OscConfig+0x4ac>)
 800237c:	689b      	ldr	r3, [r3, #8]
 800237e:	f003 030c 	and.w	r3, r3, #12
 8002382:	2b08      	cmp	r3, #8
 8002384:	d060      	beq.n	8002448 <HAL_RCC_OscConfig+0x4a0>
    {
      if ((RCC_OscInitStruct->PLL.PLLState) == RCC_PLL_ON)
 8002386:	687b      	ldr	r3, [r7, #4]
 8002388:	699b      	ldr	r3, [r3, #24]
 800238a:	2b02      	cmp	r3, #2
 800238c:	d145      	bne.n	800241a <HAL_RCC_OscConfig+0x472>
        assert_param(IS_RCC_PLLP_VALUE(RCC_OscInitStruct->PLL.PLLP));
        assert_param(IS_RCC_PLLQ_VALUE(RCC_OscInitStruct->PLL.PLLQ));
        assert_param(IS_RCC_PLLR_VALUE(RCC_OscInitStruct->PLL.PLLR));

        /* Disable the main PLL. */
        __HAL_RCC_PLL_DISABLE();
 800238e:	4b33      	ldr	r3, [pc, #204]	@ (800245c <HAL_RCC_OscConfig+0x4b4>)
 8002390:	2200      	movs	r2, #0
 8002392:	601a      	str	r2, [r3, #0]

        /* Get Start Tick*/
        tickstart = HAL_GetTick();
 8002394:	f7fe ff7e 	bl	8001294 <HAL_GetTick>
 8002398:	6138      	str	r0, [r7, #16]

        /* Wait till PLL is ready */
        while (__HAL_RCC_GET_FLAG(RCC_FLAG_PLLRDY) != RESET)
 800239a:	e008      	b.n	80023ae <HAL_RCC_OscConfig+0x406>
        {
          if ((HAL_GetTick() - tickstart) > PLL_TIMEOUT_VALUE)
 800239c:	f7fe ff7a 	bl	8001294 <HAL_GetTick>
 80023a0:	4602      	mov	r2, r0
 80023a2:	693b      	ldr	r3, [r7, #16]
 80023a4:	1ad3      	subs	r3, r2, r3
 80023a6:	2b02      	cmp	r3, #2
 80023a8:	d901      	bls.n	80023ae <HAL_RCC_OscConfig+0x406>
          {
            return HAL_TIMEOUT;
 80023aa:	2303      	movs	r3, #3
 80023ac:	e093      	b.n	80024d6 <HAL_RCC_OscConfig+0x52e>
        while (__HAL_RCC_GET_FLAG(RCC_FLAG_PLLRDY) != RESET)
 80023ae:	4b29      	ldr	r3, [pc, #164]	@ (8002454 <HAL_RCC_OscConfig+0x4ac>)
 80023b0:	681b      	ldr	r3, [r3, #0]
 80023b2:	f003 7300 	and.w	r3, r3, #33554432	@ 0x2000000
 80023b6:	2b00      	cmp	r3, #0
 80023b8:	d1f0      	bne.n	800239c <HAL_RCC_OscConfig+0x3f4>
          }
        }

        /* Configure the main PLL clock source, multiplication and division factors. */
        WRITE_REG(RCC->PLLCFGR, (RCC_OscInitStruct->PLL.PLLSource                                            | \
 80023ba:	687b      	ldr	r3, [r7, #4]
 80023bc:	69da      	ldr	r2, [r3, #28]
 80023be:	687b      	ldr	r3, [r7, #4]
 80023c0:	6a1b      	ldr	r3, [r3, #32]
 80023c2:	431a      	orrs	r2, r3
 80023c4:	687b      	ldr	r3, [r7, #4]
 80023c6:	6a5b      	ldr	r3, [r3, #36]	@ 0x24
 80023c8:	019b      	lsls	r3, r3, #6
 80023ca:	431a      	orrs	r2, r3
 80023cc:	687b      	ldr	r3, [r7, #4]
 80023ce:	6a9b      	ldr	r3, [r3, #40]	@ 0x28
 80023d0:	085b      	lsrs	r3, r3, #1
 80023d2:	3b01      	subs	r3, #1
 80023d4:	041b      	lsls	r3, r3, #16
 80023d6:	431a      	orrs	r2, r3
 80023d8:	687b      	ldr	r3, [r7, #4]
 80023da:	6adb      	ldr	r3, [r3, #44]	@ 0x2c
 80023dc:	061b      	lsls	r3, r3, #24
 80023de:	431a      	orrs	r2, r3
 80023e0:	687b      	ldr	r3, [r7, #4]
 80023e2:	6b1b      	ldr	r3, [r3, #48]	@ 0x30
 80023e4:	071b      	lsls	r3, r3, #28
 80023e6:	491b      	ldr	r1, [pc, #108]	@ (8002454 <HAL_RCC_OscConfig+0x4ac>)
 80023e8:	4313      	orrs	r3, r2
 80023ea:	604b      	str	r3, [r1, #4]
                                 (RCC_OscInitStruct->PLL.PLLN << RCC_PLLCFGR_PLLN_Pos)                       | \
                                 (((RCC_OscInitStruct->PLL.PLLP >> 1U) - 1U) << RCC_PLLCFGR_PLLP_Pos)        | \
                                 (RCC_OscInitStruct->PLL.PLLQ << RCC_PLLCFGR_PLLQ_Pos)                       | \
                                 (RCC_OscInitStruct->PLL.PLLR << RCC_PLLCFGR_PLLR_Pos)));
        /* Enable the main PLL. */
        __HAL_RCC_PLL_ENABLE();
 80023ec:	4b1b      	ldr	r3, [pc, #108]	@ (800245c <HAL_RCC_OscConfig+0x4b4>)
 80023ee:	2201      	movs	r2, #1
 80023f0:	601a      	str	r2, [r3, #0]

        /* Get Start Tick*/
        tickstart = HAL_GetTick();
 80023f2:	f7fe ff4f 	bl	8001294 <HAL_GetTick>
 80023f6:	6138      	str	r0, [r7, #16]

        /* Wait till PLL is ready */
        while (__HAL_RCC_GET_FLAG(RCC_FLAG_PLLRDY) == RESET)
 80023f8:	e008      	b.n	800240c <HAL_RCC_OscConfig+0x464>
        {
          if ((HAL_GetTick() - tickstart) > PLL_TIMEOUT_VALUE)
 80023fa:	f7fe ff4b 	bl	8001294 <HAL_GetTick>
 80023fe:	4602      	mov	r2, r0
 8002400:	693b      	ldr	r3, [r7, #16]
 8002402:	1ad3      	subs	r3, r2, r3
 8002404:	2b02      	cmp	r3, #2
 8002406:	d901      	bls.n	800240c <HAL_RCC_OscConfig+0x464>
          {
            return HAL_TIMEOUT;
 8002408:	2303      	movs	r3, #3
 800240a:	e064      	b.n	80024d6 <HAL_RCC_OscConfig+0x52e>
        while (__HAL_RCC_GET_FLAG(RCC_FLAG_PLLRDY) == RESET)
 800240c:	4b11      	ldr	r3, [pc, #68]	@ (8002454 <HAL_RCC_OscConfig+0x4ac>)
 800240e:	681b      	ldr	r3, [r3, #0]
 8002410:	f003 7300 	and.w	r3, r3, #33554432	@ 0x2000000
 8002414:	2b00      	cmp	r3, #0
 8002416:	d0f0      	beq.n	80023fa <HAL_RCC_OscConfig+0x452>
 8002418:	e05c      	b.n	80024d4 <HAL_RCC_OscConfig+0x52c>
        }
      }
      else
      {
        /* Disable the main PLL. */
        __HAL_RCC_PLL_DISABLE();
 800241a:	4b10      	ldr	r3, [pc, #64]	@ (800245c <HAL_RCC_OscConfig+0x4b4>)
 800241c:	2200      	movs	r2, #0
 800241e:	601a      	str	r2, [r3, #0]

        /* Get Start Tick*/
        tickstart = HAL_GetTick();
 8002420:	f7fe ff38 	bl	8001294 <HAL_GetTick>
 8002424:	6138      	str	r0, [r7, #16]

        /* Wait till PLL is ready */
        while (__HAL_RCC_GET_FLAG(RCC_FLAG_PLLRDY) != RESET)
 8002426:	e008      	b.n	800243a <HAL_RCC_OscConfig+0x492>
        {
          if ((HAL_GetTick() - tickstart) > PLL_TIMEOUT_VALUE)
 8002428:	f7fe ff34 	bl	8001294 <HAL_GetTick>
 800242c:	4602      	mov	r2, r0
 800242e:	693b      	ldr	r3, [r7, #16]
 8002430:	1ad3      	subs	r3, r2, r3
 8002432:	2b02      	cmp	r3, #2
 8002434:	d901      	bls.n	800243a <HAL_RCC_OscConfig+0x492>
          {
            return HAL_TIMEOUT;
 8002436:	2303      	movs	r3, #3
 8002438:	e04d      	b.n	80024d6 <HAL_RCC_OscConfig+0x52e>
        while (__HAL_RCC_GET_FLAG(RCC_FLAG_PLLRDY) != RESET)
 800243a:	4b06      	ldr	r3, [pc, #24]	@ (8002454 <HAL_RCC_OscConfig+0x4ac>)
 800243c:	681b      	ldr	r3, [r3, #0]
 800243e:	f003 7300 	and.w	r3, r3, #33554432	@ 0x2000000
 8002442:	2b00      	cmp	r3, #0
 8002444:	d1f0      	bne.n	8002428 <HAL_RCC_OscConfig+0x480>
 8002446:	e045      	b.n	80024d4 <HAL_RCC_OscConfig+0x52c>
      }
    }
    else
    {
      /* Check if there is a request to disable the PLL used as System clock source */
      if ((RCC_OscInitStruct->PLL.PLLState) == RCC_PLL_OFF)
 8002448:	687b      	ldr	r3, [r7, #4]
 800244a:	699b      	ldr	r3, [r3, #24]
 800244c:	2b01      	cmp	r3, #1
 800244e:	d107      	bne.n	8002460 <HAL_RCC_OscConfig+0x4b8>
      {
        return HAL_ERROR;
 8002450:	2301      	movs	r3, #1
 8002452:	e040      	b.n	80024d6 <HAL_RCC_OscConfig+0x52e>
 8002454:	40023800 	.word	0x40023800
 8002458:	40007000 	.word	0x40007000
 800245c:	42470060 	.word	0x42470060
      }
      else
      {
        /* Do not return HAL_ERROR if request repeats the current configuration */
        pll_config = RCC->PLLCFGR;
 8002460:	4b1f      	ldr	r3, [pc, #124]	@ (80024e0 <HAL_RCC_OscConfig+0x538>)
 8002462:	685b      	ldr	r3, [r3, #4]
 8002464:	60fb      	str	r3, [r7, #12]
#if defined (RCC_PLLCFGR_PLLR)
        if (((RCC_OscInitStruct->PLL.PLLState) == RCC_PLL_OFF) ||
 8002466:	687b      	ldr	r3, [r7, #4]
 8002468:	699b      	ldr	r3, [r3, #24]
 800246a:	2b01      	cmp	r3, #1
 800246c:	d030      	beq.n	80024d0 <HAL_RCC_OscConfig+0x528>
            (READ_BIT(pll_config, RCC_PLLCFGR_PLLSRC) != RCC_OscInitStruct->PLL.PLLSource) ||
 800246e:	68fb      	ldr	r3, [r7, #12]
 8002470:	f403 0280 	and.w	r2, r3, #4194304	@ 0x400000
 8002474:	687b      	ldr	r3, [r7, #4]
 8002476:	69db      	ldr	r3, [r3, #28]
        if (((RCC_OscInitStruct->PLL.PLLState) == RCC_PLL_OFF) ||
 8002478:	429a      	cmp	r2, r3
 800247a:	d129      	bne.n	80024d0 <HAL_RCC_OscConfig+0x528>
            (READ_BIT(pll_config, RCC_PLLCFGR_PLLM) != (RCC_OscInitStruct->PLL.PLLM) << RCC_PLLCFGR_PLLM_Pos) ||
 800247c:	68fb      	ldr	r3, [r7, #12]
 800247e:	f003 023f 	and.w	r2, r3, #63	@ 0x3f
 8002482:	687b      	ldr	r3, [r7, #4]
 8002484:	6a1b      	ldr	r3, [r3, #32]
            (READ_BIT(pll_config, RCC_PLLCFGR_PLLSRC) != RCC_OscInitStruct->PLL.PLLSource) ||
 8002486:	429a      	cmp	r2, r3
 8002488:	d122      	bne.n	80024d0 <HAL_RCC_OscConfig+0x528>
            (READ_BIT(pll_config, RCC_PLLCFGR_PLLN) != (RCC_OscInitStruct->PLL.PLLN) << RCC_PLLCFGR_PLLN_Pos) ||
 800248a:	68fa      	ldr	r2, [r7, #12]
 800248c:	f647 73c0 	movw	r3, #32704	@ 0x7fc0
 8002490:	4013      	ands	r3, r2
 8002492:	687a      	ldr	r2, [r7, #4]
 8002494:	6a52      	ldr	r2, [r2, #36]	@ 0x24
 8002496:	0192      	lsls	r2, r2, #6
            (READ_BIT(pll_config, RCC_PLLCFGR_PLLM) != (RCC_OscInitStruct->PLL.PLLM) << RCC_PLLCFGR_PLLM_Pos) ||
 8002498:	4293      	cmp	r3, r2
 800249a:	d119      	bne.n	80024d0 <HAL_RCC_OscConfig+0x528>
            (READ_BIT(pll_config, RCC_PLLCFGR_PLLP) != (((RCC_OscInitStruct->PLL.PLLP >> 1U) - 1U)) << RCC_PLLCFGR_PLLP_Pos) ||
 800249c:	68fb      	ldr	r3, [r7, #12]
 800249e:	f403 3240 	and.w	r2, r3, #196608	@ 0x30000
 80024a2:	687b      	ldr	r3, [r7, #4]
 80024a4:	6a9b      	ldr	r3, [r3, #40]	@ 0x28
 80024a6:	085b      	lsrs	r3, r3, #1
 80024a8:	3b01      	subs	r3, #1
 80024aa:	041b      	lsls	r3, r3, #16
            (READ_BIT(pll_config, RCC_PLLCFGR_PLLN) != (RCC_OscInitStruct->PLL.PLLN) << RCC_PLLCFGR_PLLN_Pos) ||
 80024ac:	429a      	cmp	r2, r3
 80024ae:	d10f      	bne.n	80024d0 <HAL_RCC_OscConfig+0x528>
            (READ_BIT(pll_config, RCC_PLLCFGR_PLLQ) != (RCC_OscInitStruct->PLL.PLLQ << RCC_PLLCFGR_PLLQ_Pos)) ||
 80024b0:	68fb      	ldr	r3, [r7, #12]
 80024b2:	f003 6270 	and.w	r2, r3, #251658240	@ 0xf000000
 80024b6:	687b      	ldr	r3, [r7, #4]
 80024b8:	6adb      	ldr	r3, [r3, #44]	@ 0x2c
 80024ba:	061b      	lsls	r3, r3, #24
            (READ_BIT(pll_config, RCC_PLLCFGR_PLLP) != (((RCC_OscInitStruct->PLL.PLLP >> 1U) - 1U)) << RCC_PLLCFGR_PLLP_Pos) ||
 80024bc:	429a      	cmp	r2, r3
 80024be:	d107      	bne.n	80024d0 <HAL_RCC_OscConfig+0x528>
            (READ_BIT(pll_config, RCC_PLLCFGR_PLLR) != (RCC_OscInitStruct->PLL.PLLR << RCC_PLLCFGR_PLLR_Pos)))
 80024c0:	68fb      	ldr	r3, [r7, #12]
 80024c2:	f003 42e0 	and.w	r2, r3, #1879048192	@ 0x70000000
 80024c6:	687b      	ldr	r3, [r7, #4]
 80024c8:	6b1b      	ldr	r3, [r3, #48]	@ 0x30
 80024ca:	071b      	lsls	r3, r3, #28
            (READ_BIT(pll_config, RCC_PLLCFGR_PLLQ) != (RCC_OscInitStruct->PLL.PLLQ << RCC_PLLCFGR_PLLQ_Pos)) ||
 80024cc:	429a      	cmp	r2, r3
 80024ce:	d001      	beq.n	80024d4 <HAL_RCC_OscConfig+0x52c>
            (READ_BIT(pll_config, RCC_PLLCFGR_PLLN) != (RCC_OscInitStruct->PLL.PLLN) << RCC_PLLCFGR_PLLN_Pos) ||
            (READ_BIT(pll_config, RCC_PLLCFGR_PLLP) != (((RCC_OscInitStruct->PLL.PLLP >> 1U) - 1U)) << RCC_PLLCFGR_PLLP_Pos) ||
            (READ_BIT(pll_config, RCC_PLLCFGR_PLLQ) != (RCC_OscInitStruct->PLL.PLLQ << RCC_PLLCFGR_PLLQ_Pos)))
#endif /* RCC_PLLCFGR_PLLR */
        {
          return HAL_ERROR;
 80024d0:	2301      	movs	r3, #1
 80024d2:	e000      	b.n	80024d6 <HAL_RCC_OscConfig+0x52e>
        }
      }
    }
  }
  return HAL_OK;
 80024d4:	2300      	movs	r3, #0
}
 80024d6:	4618      	mov	r0, r3
 80024d8:	3718      	adds	r7, #24
 80024da:	46bd      	mov	sp, r7
 80024dc:	bd80      	pop	{r7, pc}
 80024de:	bf00      	nop
 80024e0:	40023800 	.word	0x40023800

080024e4 <HAL_SPI_Init>:
  * @param  hspi pointer to a SPI_HandleTypeDef structure that contains
  *               the configuration information for SPI module.
  * @retval HAL status
  */
HAL_StatusTypeDef HAL_SPI_Init(SPI_HandleTypeDef *hspi)
{
 80024e4:	b580      	push	{r7, lr}
 80024e6:	b082      	sub	sp, #8
 80024e8:	af00      	add	r7, sp, #0
 80024ea:	6078      	str	r0, [r7, #4]
  /* Check the SPI handle allocation */
  if (hspi == NULL)
 80024ec:	687b      	ldr	r3, [r7, #4]
 80024ee:	2b00      	cmp	r3, #0
 80024f0:	d101      	bne.n	80024f6 <HAL_SPI_Init+0x12>
  {
    return HAL_ERROR;
 80024f2:	2301      	movs	r3, #1
 80024f4:	e07b      	b.n	80025ee <HAL_SPI_Init+0x10a>
  assert_param(IS_SPI_DATASIZE(hspi->Init.DataSize));
  assert_param(IS_SPI_NSS(hspi->Init.NSS));
  assert_param(IS_SPI_BAUDRATE_PRESCALER(hspi->Init.BaudRatePrescaler));
  assert_param(IS_SPI_FIRST_BIT(hspi->Init.FirstBit));
  assert_param(IS_SPI_TIMODE(hspi->Init.TIMode));
  if (hspi->Init.TIMode == SPI_TIMODE_DISABLE)
 80024f6:	687b      	ldr	r3, [r7, #4]
 80024f8:	6a5b      	ldr	r3, [r3, #36]	@ 0x24
 80024fa:	2b00      	cmp	r3, #0
 80024fc:	d108      	bne.n	8002510 <HAL_SPI_Init+0x2c>
  {
    assert_param(IS_SPI_CPOL(hspi->Init.CLKPolarity));
    assert_param(IS_SPI_CPHA(hspi->Init.CLKPhase));

    if (hspi->Init.Mode == SPI_MODE_MASTER)
 80024fe:	687b      	ldr	r3, [r7, #4]
 8002500:	685b      	ldr	r3, [r3, #4]
 8002502:	f5b3 7f82 	cmp.w	r3, #260	@ 0x104
 8002506:	d009      	beq.n	800251c <HAL_SPI_Init+0x38>
      assert_param(IS_SPI_BAUDRATE_PRESCALER(hspi->Init.BaudRatePrescaler));
    }
    else
    {
      /* Baudrate prescaler not use in Motoraola Slave mode. force to default value */
      hspi->Init.BaudRatePrescaler = SPI_BAUDRATEPRESCALER_2;
 8002508:	687b      	ldr	r3, [r7, #4]
 800250a:	2200      	movs	r2, #0
 800250c:	61da      	str	r2, [r3, #28]
 800250e:	e005      	b.n	800251c <HAL_SPI_Init+0x38>
  else
  {
    assert_param(IS_SPI_BAUDRATE_PRESCALER(hspi->Init.BaudRatePrescaler));

    /* Force polarity and phase to TI protocaol requirements */
    hspi->Init.CLKPolarity = SPI_POLARITY_LOW;
 8002510:	687b      	ldr	r3, [r7, #4]
 8002512:	2200      	movs	r2, #0
 8002514:	611a      	str	r2, [r3, #16]
    hspi->Init.CLKPhase    = SPI_PHASE_1EDGE;
 8002516:	687b      	ldr	r3, [r7, #4]
 8002518:	2200      	movs	r2, #0
 800251a:	615a      	str	r2, [r3, #20]
  if (hspi->Init.CRCCalculation == SPI_CRCCALCULATION_ENABLE)
  {
    assert_param(IS_SPI_CRC_POLYNOMIAL(hspi->Init.CRCPolynomial));
  }
#else
  hspi->Init.CRCCalculation = SPI_CRCCALCULATION_DISABLE;
 800251c:	687b      	ldr	r3, [r7, #4]
 800251e:	2200      	movs	r2, #0
 8002520:	629a      	str	r2, [r3, #40]	@ 0x28
#endif /* USE_SPI_CRC */

  if (hspi->State == HAL_SPI_STATE_RESET)
 8002522:	687b      	ldr	r3, [r7, #4]
 8002524:	f893 3051 	ldrb.w	r3, [r3, #81]	@ 0x51
 8002528:	b2db      	uxtb	r3, r3
 800252a:	2b00      	cmp	r3, #0
 800252c:	d106      	bne.n	800253c <HAL_SPI_Init+0x58>
  {
    /* Allocate lock resource and initialize it */
    hspi->Lock = HAL_UNLOCKED;
 800252e:	687b      	ldr	r3, [r7, #4]
 8002530:	2200      	movs	r2, #0
 8002532:	f883 2050 	strb.w	r2, [r3, #80]	@ 0x50

    /* Init the low level hardware : GPIO, CLOCK, NVIC... */
    hspi->MspInitCallback(hspi);
#else
    /* Init the low level hardware : GPIO, CLOCK, NVIC... */
    HAL_SPI_MspInit(hspi);
 8002536:	6878      	ldr	r0, [r7, #4]
 8002538:	f7fe fb90 	bl	8000c5c <HAL_SPI_MspInit>
#endif /* USE_HAL_SPI_REGISTER_CALLBACKS */
  }

  hspi->State = HAL_SPI_STATE_BUSY;
 800253c:	687b      	ldr	r3, [r7, #4]
 800253e:	2202      	movs	r2, #2
 8002540:	f883 2051 	strb.w	r2, [r3, #81]	@ 0x51

  /* Disable the selected SPI peripheral */
  __HAL_SPI_DISABLE(hspi);
 8002544:	687b      	ldr	r3, [r7, #4]
 8002546:	681b      	ldr	r3, [r3, #0]
 8002548:	681a      	ldr	r2, [r3, #0]
 800254a:	687b      	ldr	r3, [r7, #4]
 800254c:	681b      	ldr	r3, [r3, #0]
 800254e:	f022 0240 	bic.w	r2, r2, #64	@ 0x40
 8002552:	601a      	str	r2, [r3, #0]

  /*----------------------- SPIx CR1 & CR2 Configuration ---------------------*/
  /* Configure : SPI Mode, Communication Mode, Data size, Clock polarity and phase, NSS management,
  Communication speed, First bit and CRC calculation state */
  WRITE_REG(hspi->Instance->CR1, ((hspi->Init.Mode & (SPI_CR1_MSTR | SPI_CR1_SSI)) |
 8002554:	687b      	ldr	r3, [r7, #4]
 8002556:	685b      	ldr	r3, [r3, #4]
 8002558:	f403 7282 	and.w	r2, r3, #260	@ 0x104
 800255c:	687b      	ldr	r3, [r7, #4]
 800255e:	689b      	ldr	r3, [r3, #8]
 8002560:	f403 4304 	and.w	r3, r3, #33792	@ 0x8400
 8002564:	431a      	orrs	r2, r3
 8002566:	687b      	ldr	r3, [r7, #4]
 8002568:	68db      	ldr	r3, [r3, #12]
 800256a:	f403 6300 	and.w	r3, r3, #2048	@ 0x800
 800256e:	431a      	orrs	r2, r3
 8002570:	687b      	ldr	r3, [r7, #4]
 8002572:	691b      	ldr	r3, [r3, #16]
 8002574:	f003 0302 	and.w	r3, r3, #2
 8002578:	431a      	orrs	r2, r3
 800257a:	687b      	ldr	r3, [r7, #4]
 800257c:	695b      	ldr	r3, [r3, #20]
 800257e:	f003 0301 	and.w	r3, r3, #1
 8002582:	431a      	orrs	r2, r3
 8002584:	687b      	ldr	r3, [r7, #4]
 8002586:	699b      	ldr	r3, [r3, #24]
 8002588:	f403 7300 	and.w	r3, r3, #512	@ 0x200
 800258c:	431a      	orrs	r2, r3
 800258e:	687b      	ldr	r3, [r7, #4]
 8002590:	69db      	ldr	r3, [r3, #28]
 8002592:	f003 0338 	and.w	r3, r3, #56	@ 0x38
 8002596:	431a      	orrs	r2, r3
 8002598:	687b      	ldr	r3, [r7, #4]
 800259a:	6a1b      	ldr	r3, [r3, #32]
 800259c:	f003 0380 	and.w	r3, r3, #128	@ 0x80
 80025a0:	ea42 0103 	orr.w	r1, r2, r3
 80025a4:	687b      	ldr	r3, [r7, #4]
 80025a6:	6a9b      	ldr	r3, [r3, #40]	@ 0x28
 80025a8:	f403 5200 	and.w	r2, r3, #8192	@ 0x2000
 80025ac:	687b      	ldr	r3, [r7, #4]
 80025ae:	681b      	ldr	r3, [r3, #0]
 80025b0:	430a      	orrs	r2, r1
 80025b2:	601a      	str	r2, [r3, #0]
                                  (hspi->Init.BaudRatePrescaler & SPI_CR1_BR_Msk) |
                                  (hspi->Init.FirstBit  & SPI_CR1_LSBFIRST) |
                                  (hspi->Init.CRCCalculation & SPI_CR1_CRCEN)));

  /* Configure : NSS management, TI Mode */
  WRITE_REG(hspi->Instance->CR2, (((hspi->Init.NSS >> 16U) & SPI_CR2_SSOE) | (hspi->Init.TIMode & SPI_CR2_FRF)));
 80025b4:	687b      	ldr	r3, [r7, #4]
 80025b6:	699b      	ldr	r3, [r3, #24]
 80025b8:	0c1b      	lsrs	r3, r3, #16
 80025ba:	f003 0104 	and.w	r1, r3, #4
 80025be:	687b      	ldr	r3, [r7, #4]
 80025c0:	6a5b      	ldr	r3, [r3, #36]	@ 0x24
 80025c2:	f003 0210 	and.w	r2, r3, #16
 80025c6:	687b      	ldr	r3, [r7, #4]
 80025c8:	681b      	ldr	r3, [r3, #0]
 80025ca:	430a      	orrs	r2, r1
 80025cc:	605a      	str	r2, [r3, #4]
  }
#endif /* USE_SPI_CRC */

#if defined(SPI_I2SCFGR_I2SMOD)
  /* Activate the SPI mode (Make sure that I2SMOD bit in I2SCFGR register is reset) */
  CLEAR_BIT(hspi->Instance->I2SCFGR, SPI_I2SCFGR_I2SMOD);
 80025ce:	687b      	ldr	r3, [r7, #4]
 80025d0:	681b      	ldr	r3, [r3, #0]
 80025d2:	69da      	ldr	r2, [r3, #28]
 80025d4:	687b      	ldr	r3, [r7, #4]
 80025d6:	681b      	ldr	r3, [r3, #0]
 80025d8:	f422 6200 	bic.w	r2, r2, #2048	@ 0x800
 80025dc:	61da      	str	r2, [r3, #28]
#endif /* SPI_I2SCFGR_I2SMOD */

  hspi->ErrorCode = HAL_SPI_ERROR_NONE;
 80025de:	687b      	ldr	r3, [r7, #4]
 80025e0:	2200      	movs	r2, #0
 80025e2:	655a      	str	r2, [r3, #84]	@ 0x54
  hspi->State     = HAL_SPI_STATE_READY;
 80025e4:	687b      	ldr	r3, [r7, #4]
 80025e6:	2201      	movs	r2, #1
 80025e8:	f883 2051 	strb.w	r2, [r3, #81]	@ 0x51

  return HAL_OK;
 80025ec:	2300      	movs	r3, #0
}
 80025ee:	4618      	mov	r0, r3
 80025f0:	3708      	adds	r7, #8
 80025f2:	46bd      	mov	sp, r7
 80025f4:	bd80      	pop	{r7, pc}
	...

080025f8 <HAL_TIM_Base_Start_IT>:
  * @brief  Starts the TIM Base generation in interrupt mode.
  * @param  htim TIM Base handle
  * @retval HAL status
  */
HAL_StatusTypeDef HAL_TIM_Base_Start_IT(TIM_HandleTypeDef *htim)
{
 80025f8:	b480      	push	{r7}
 80025fa:	b085      	sub	sp, #20
 80025fc:	af00      	add	r7, sp, #0
 80025fe:	6078      	str	r0, [r7, #4]

  /* Check the parameters */
  assert_param(IS_TIM_INSTANCE(htim->Instance));

  /* Check the TIM state */
  if (htim->State != HAL_TIM_STATE_READY)
 8002600:	687b      	ldr	r3, [r7, #4]
 8002602:	f893 303d 	ldrb.w	r3, [r3, #61]	@ 0x3d
 8002606:	b2db      	uxtb	r3, r3
 8002608:	2b01      	cmp	r3, #1
 800260a:	d001      	beq.n	8002610 <HAL_TIM_Base_Start_IT+0x18>
  {
    return HAL_ERROR;
 800260c:	2301      	movs	r3, #1
 800260e:	e04e      	b.n	80026ae <HAL_TIM_Base_Start_IT+0xb6>
  }

  /* Set the TIM state */
  htim->State = HAL_TIM_STATE_BUSY;
 8002610:	687b      	ldr	r3, [r7, #4]
 8002612:	2202      	movs	r2, #2
 8002614:	f883 203d 	strb.w	r2, [r3, #61]	@ 0x3d

  /* Enable the TIM Update interrupt */
  __HAL_TIM_ENABLE_IT(htim, TIM_IT_UPDATE);
 8002618:	687b      	ldr	r3, [r7, #4]
 800261a:	681b      	ldr	r3, [r3, #0]
 800261c:	68da      	ldr	r2, [r3, #12]
 800261e:	687b      	ldr	r3, [r7, #4]
 8002620:	681b      	ldr	r3, [r3, #0]
 8002622:	f042 0201 	orr.w	r2, r2, #1
 8002626:	60da      	str	r2, [r3, #12]

  /* Enable the Peripheral, except in trigger mode where enable is automatically done with trigger */
  if (IS_TIM_SLAVE_INSTANCE(htim->Instance))
 8002628:	687b      	ldr	r3, [r7, #4]
 800262a:	681b      	ldr	r3, [r3, #0]
 800262c:	4a23      	ldr	r2, [pc, #140]	@ (80026bc <HAL_TIM_Base_Start_IT+0xc4>)
 800262e:	4293      	cmp	r3, r2
 8002630:	d022      	beq.n	8002678 <HAL_TIM_Base_Start_IT+0x80>
 8002632:	687b      	ldr	r3, [r7, #4]
 8002634:	681b      	ldr	r3, [r3, #0]
 8002636:	f1b3 4f80 	cmp.w	r3, #1073741824	@ 0x40000000
 800263a:	d01d      	beq.n	8002678 <HAL_TIM_Base_Start_IT+0x80>
 800263c:	687b      	ldr	r3, [r7, #4]
 800263e:	681b      	ldr	r3, [r3, #0]
 8002640:	4a1f      	ldr	r2, [pc, #124]	@ (80026c0 <HAL_TIM_Base_Start_IT+0xc8>)
 8002642:	4293      	cmp	r3, r2
 8002644:	d018      	beq.n	8002678 <HAL_TIM_Base_Start_IT+0x80>
 8002646:	687b      	ldr	r3, [r7, #4]
 8002648:	681b      	ldr	r3, [r3, #0]
 800264a:	4a1e      	ldr	r2, [pc, #120]	@ (80026c4 <HAL_TIM_Base_Start_IT+0xcc>)
 800264c:	4293      	cmp	r3, r2
 800264e:	d013      	beq.n	8002678 <HAL_TIM_Base_Start_IT+0x80>
 8002650:	687b      	ldr	r3, [r7, #4]
 8002652:	681b      	ldr	r3, [r3, #0]
 8002654:	4a1c      	ldr	r2, [pc, #112]	@ (80026c8 <HAL_TIM_Base_Start_IT+0xd0>)
 8002656:	4293      	cmp	r3, r2
 8002658:	d00e      	beq.n	8002678 <HAL_TIM_Base_Start_IT+0x80>
 800265a:	687b      	ldr	r3, [r7, #4]
 800265c:	681b      	ldr	r3, [r3, #0]
 800265e:	4a1b      	ldr	r2, [pc, #108]	@ (80026cc <HAL_TIM_Base_Start_IT+0xd4>)
 8002660:	4293      	cmp	r3, r2
 8002662:	d009      	beq.n	8002678 <HAL_TIM_Base_Start_IT+0x80>
 8002664:	687b      	ldr	r3, [r7, #4]
 8002666:	681b      	ldr	r3, [r3, #0]
 8002668:	4a19      	ldr	r2, [pc, #100]	@ (80026d0 <HAL_TIM_Base_Start_IT+0xd8>)
 800266a:	4293      	cmp	r3, r2
 800266c:	d004      	beq.n	8002678 <HAL_TIM_Base_Start_IT+0x80>
 800266e:	687b      	ldr	r3, [r7, #4]
 8002670:	681b      	ldr	r3, [r3, #0]
 8002672:	4a18      	ldr	r2, [pc, #96]	@ (80026d4 <HAL_TIM_Base_Start_IT+0xdc>)
 8002674:	4293      	cmp	r3, r2
 8002676:	d111      	bne.n	800269c <HAL_TIM_Base_Start_IT+0xa4>
  {
    tmpsmcr = htim->Instance->SMCR & TIM_SMCR_SMS;
 8002678:	687b      	ldr	r3, [r7, #4]
 800267a:	681b      	ldr	r3, [r3, #0]
 800267c:	689b      	ldr	r3, [r3, #8]
 800267e:	f003 0307 	and.w	r3, r3, #7
 8002682:	60fb      	str	r3, [r7, #12]
    if (!IS_TIM_SLAVEMODE_TRIGGER_ENABLED(tmpsmcr))
 8002684:	68fb      	ldr	r3, [r7, #12]
 8002686:	2b06      	cmp	r3, #6
 8002688:	d010      	beq.n	80026ac <HAL_TIM_Base_Start_IT+0xb4>
    {
      __HAL_TIM_ENABLE(htim);
 800268a:	687b      	ldr	r3, [r7, #4]
 800268c:	681b      	ldr	r3, [r3, #0]
 800268e:	681a      	ldr	r2, [r3, #0]
 8002690:	687b      	ldr	r3, [r7, #4]
 8002692:	681b      	ldr	r3, [r3, #0]
 8002694:	f042 0201 	orr.w	r2, r2, #1
 8002698:	601a      	str	r2, [r3, #0]
    if (!IS_TIM_SLAVEMODE_TRIGGER_ENABLED(tmpsmcr))
 800269a:	e007      	b.n	80026ac <HAL_TIM_Base_Start_IT+0xb4>
    }
  }
  else
  {
    __HAL_TIM_ENABLE(htim);
 800269c:	687b      	ldr	r3, [r7, #4]
 800269e:	681b      	ldr	r3, [r3, #0]
 80026a0:	681a      	ldr	r2, [r3, #0]
 80026a2:	687b      	ldr	r3, [r7, #4]
 80026a4:	681b      	ldr	r3, [r3, #0]
 80026a6:	f042 0201 	orr.w	r2, r2, #1
 80026aa:	601a      	str	r2, [r3, #0]
  }

  /* Return function status */
  return HAL_OK;
 80026ac:	2300      	movs	r3, #0
}
 80026ae:	4618      	mov	r0, r3
 80026b0:	3714      	adds	r7, #20
 80026b2:	46bd      	mov	sp, r7
 80026b4:	f85d 7b04 	ldr.w	r7, [sp], #4
 80026b8:	4770      	bx	lr
 80026ba:	bf00      	nop
 80026bc:	40010000 	.word	0x40010000
 80026c0:	40000400 	.word	0x40000400
 80026c4:	40000800 	.word	0x40000800
 80026c8:	40000c00 	.word	0x40000c00
 80026cc:	40010400 	.word	0x40010400
 80026d0:	40014000 	.word	0x40014000
 80026d4:	40001800 	.word	0x40001800

080026d8 <HAL_TIM_PWM_Init>:
  *         Ex: call @ref HAL_TIM_PWM_DeInit() before HAL_TIM_PWM_Init()
  * @param  htim TIM PWM handle
  * @retval HAL status
  */
HAL_StatusTypeDef HAL_TIM_PWM_Init(TIM_HandleTypeDef *htim)
{
 80026d8:	b580      	push	{r7, lr}
 80026da:	b082      	sub	sp, #8
 80026dc:	af00      	add	r7, sp, #0
 80026de:	6078      	str	r0, [r7, #4]
  /* Check the TIM handle allocation */
  if (htim == NULL)
 80026e0:	687b      	ldr	r3, [r7, #4]
 80026e2:	2b00      	cmp	r3, #0
 80026e4:	d101      	bne.n	80026ea <HAL_TIM_PWM_Init+0x12>
  {
    return HAL_ERROR;
 80026e6:	2301      	movs	r3, #1
 80026e8:	e041      	b.n	800276e <HAL_TIM_PWM_Init+0x96>
  assert_param(IS_TIM_COUNTER_MODE(htim->Init.CounterMode));
  assert_param(IS_TIM_CLOCKDIVISION_DIV(htim->Init.ClockDivision));
  assert_param(IS_TIM_PERIOD(htim, htim->Init.Period));
  assert_param(IS_TIM_AUTORELOAD_PRELOAD(htim->Init.AutoReloadPreload));

  if (htim->State == HAL_TIM_STATE_RESET)
 80026ea:	687b      	ldr	r3, [r7, #4]
 80026ec:	f893 303d 	ldrb.w	r3, [r3, #61]	@ 0x3d
 80026f0:	b2db      	uxtb	r3, r3
 80026f2:	2b00      	cmp	r3, #0
 80026f4:	d106      	bne.n	8002704 <HAL_TIM_PWM_Init+0x2c>
  {
    /* Allocate lock resource and initialize it */
    htim->Lock = HAL_UNLOCKED;
 80026f6:	687b      	ldr	r3, [r7, #4]
 80026f8:	2200      	movs	r2, #0
 80026fa:	f883 203c 	strb.w	r2, [r3, #60]	@ 0x3c
    }
    /* Init the low level hardware : GPIO, CLOCK, NVIC */
    htim->PWM_MspInitCallback(htim);
#else
    /* Init the low level hardware : GPIO, CLOCK, NVIC and DMA */
    HAL_TIM_PWM_MspInit(htim);
 80026fe:	6878      	ldr	r0, [r7, #4]
 8002700:	f7fe fc64 	bl	8000fcc <HAL_TIM_PWM_MspInit>
#endif /* USE_HAL_TIM_REGISTER_CALLBACKS */
  }

  /* Set the TIM state */
  htim->State = HAL_TIM_STATE_BUSY;
 8002704:	687b      	ldr	r3, [r7, #4]
 8002706:	2202      	movs	r2, #2
 8002708:	f883 203d 	strb.w	r2, [r3, #61]	@ 0x3d

  /* Init the base time for the PWM */
  TIM_Base_SetConfig(htim->Instance, &htim->Init);
 800270c:	687b      	ldr	r3, [r7, #4]
 800270e:	681a      	ldr	r2, [r3, #0]
 8002710:	687b      	ldr	r3, [r7, #4]
 8002712:	3304      	adds	r3, #4
 8002714:	4619      	mov	r1, r3
 8002716:	4610      	mov	r0, r2
 8002718:	f000 fada 	bl	8002cd0 <TIM_Base_SetConfig>

  /* Initialize the DMA burst operation state */
  htim->DMABurstState = HAL_DMA_BURST_STATE_READY;
 800271c:	687b      	ldr	r3, [r7, #4]
 800271e:	2201      	movs	r2, #1
 8002720:	f883 2046 	strb.w	r2, [r3, #70]	@ 0x46

  /* Initialize the TIM channels state */
  TIM_CHANNEL_STATE_SET_ALL(htim, HAL_TIM_CHANNEL_STATE_READY);
 8002724:	687b      	ldr	r3, [r7, #4]
 8002726:	2201      	movs	r2, #1
 8002728:	f883 203e 	strb.w	r2, [r3, #62]	@ 0x3e
 800272c:	687b      	ldr	r3, [r7, #4]
 800272e:	2201      	movs	r2, #1
 8002730:	f883 203f 	strb.w	r2, [r3, #63]	@ 0x3f
 8002734:	687b      	ldr	r3, [r7, #4]
 8002736:	2201      	movs	r2, #1
 8002738:	f883 2040 	strb.w	r2, [r3, #64]	@ 0x40
 800273c:	687b      	ldr	r3, [r7, #4]
 800273e:	2201      	movs	r2, #1
 8002740:	f883 2041 	strb.w	r2, [r3, #65]	@ 0x41
  TIM_CHANNEL_N_STATE_SET_ALL(htim, HAL_TIM_CHANNEL_STATE_READY);
 8002744:	687b      	ldr	r3, [r7, #4]
 8002746:	2201      	movs	r2, #1
 8002748:	f883 2042 	strb.w	r2, [r3, #66]	@ 0x42
 800274c:	687b      	ldr	r3, [r7, #4]
 800274e:	2201      	movs	r2, #1
 8002750:	f883 2043 	strb.w	r2, [r3, #67]	@ 0x43
 8002754:	687b      	ldr	r3, [r7, #4]
 8002756:	2201      	movs	r2, #1
 8002758:	f883 2044 	strb.w	r2, [r3, #68]	@ 0x44
 800275c:	687b      	ldr	r3, [r7, #4]
 800275e:	2201      	movs	r2, #1
 8002760:	f883 2045 	strb.w	r2, [r3, #69]	@ 0x45

  /* Initialize the TIM state*/
  htim->State = HAL_TIM_STATE_READY;
 8002764:	687b      	ldr	r3, [r7, #4]
 8002766:	2201      	movs	r2, #1
 8002768:	f883 203d 	strb.w	r2, [r3, #61]	@ 0x3d

  return HAL_OK;
 800276c:	2300      	movs	r3, #0
}
 800276e:	4618      	mov	r0, r3
 8002770:	3708      	adds	r7, #8
 8002772:	46bd      	mov	sp, r7
 8002774:	bd80      	pop	{r7, pc}
	...

08002778 <HAL_TIM_PWM_Start>:
  *            @arg TIM_CHANNEL_3: TIM Channel 3 selected
  *            @arg TIM_CHANNEL_4: TIM Channel 4 selected
  * @retval HAL status
  */
HAL_StatusTypeDef HAL_TIM_PWM_Start(TIM_HandleTypeDef *htim, uint32_t Channel)
{
 8002778:	b580      	push	{r7, lr}
 800277a:	b084      	sub	sp, #16
 800277c:	af00      	add	r7, sp, #0
 800277e:	6078      	str	r0, [r7, #4]
 8002780:	6039      	str	r1, [r7, #0]

  /* Check the parameters */
  assert_param(IS_TIM_CCX_INSTANCE(htim->Instance, Channel));

  /* Check the TIM channel state */
  if (TIM_CHANNEL_STATE_GET(htim, Channel) != HAL_TIM_CHANNEL_STATE_READY)
 8002782:	683b      	ldr	r3, [r7, #0]
 8002784:	2b00      	cmp	r3, #0
 8002786:	d109      	bne.n	800279c <HAL_TIM_PWM_Start+0x24>
 8002788:	687b      	ldr	r3, [r7, #4]
 800278a:	f893 303e 	ldrb.w	r3, [r3, #62]	@ 0x3e
 800278e:	b2db      	uxtb	r3, r3
 8002790:	2b01      	cmp	r3, #1
 8002792:	bf14      	ite	ne
 8002794:	2301      	movne	r3, #1
 8002796:	2300      	moveq	r3, #0
 8002798:	b2db      	uxtb	r3, r3
 800279a:	e022      	b.n	80027e2 <HAL_TIM_PWM_Start+0x6a>
 800279c:	683b      	ldr	r3, [r7, #0]
 800279e:	2b04      	cmp	r3, #4
 80027a0:	d109      	bne.n	80027b6 <HAL_TIM_PWM_Start+0x3e>
 80027a2:	687b      	ldr	r3, [r7, #4]
 80027a4:	f893 303f 	ldrb.w	r3, [r3, #63]	@ 0x3f
 80027a8:	b2db      	uxtb	r3, r3
 80027aa:	2b01      	cmp	r3, #1
 80027ac:	bf14      	ite	ne
 80027ae:	2301      	movne	r3, #1
 80027b0:	2300      	moveq	r3, #0
 80027b2:	b2db      	uxtb	r3, r3
 80027b4:	e015      	b.n	80027e2 <HAL_TIM_PWM_Start+0x6a>
 80027b6:	683b      	ldr	r3, [r7, #0]
 80027b8:	2b08      	cmp	r3, #8
 80027ba:	d109      	bne.n	80027d0 <HAL_TIM_PWM_Start+0x58>
 80027bc:	687b      	ldr	r3, [r7, #4]
 80027be:	f893 3040 	ldrb.w	r3, [r3, #64]	@ 0x40
 80027c2:	b2db      	uxtb	r3, r3
 80027c4:	2b01      	cmp	r3, #1
 80027c6:	bf14      	ite	ne
 80027c8:	2301      	movne	r3, #1
 80027ca:	2300      	moveq	r3, #0
 80027cc:	b2db      	uxtb	r3, r3
 80027ce:	e008      	b.n	80027e2 <HAL_TIM_PWM_Start+0x6a>
 80027d0:	687b      	ldr	r3, [r7, #4]
 80027d2:	f893 3041 	ldrb.w	r3, [r3, #65]	@ 0x41
 80027d6:	b2db      	uxtb	r3, r3
 80027d8:	2b01      	cmp	r3, #1
 80027da:	bf14      	ite	ne
 80027dc:	2301      	movne	r3, #1
 80027de:	2300      	moveq	r3, #0
 80027e0:	b2db      	uxtb	r3, r3
 80027e2:	2b00      	cmp	r3, #0
 80027e4:	d001      	beq.n	80027ea <HAL_TIM_PWM_Start+0x72>
  {
    return HAL_ERROR;
 80027e6:	2301      	movs	r3, #1
 80027e8:	e07c      	b.n	80028e4 <HAL_TIM_PWM_Start+0x16c>
  }

  /* Set the TIM channel state */
  TIM_CHANNEL_STATE_SET(htim, Channel, HAL_TIM_CHANNEL_STATE_BUSY);
 80027ea:	683b      	ldr	r3, [r7, #0]
 80027ec:	2b00      	cmp	r3, #0
 80027ee:	d104      	bne.n	80027fa <HAL_TIM_PWM_Start+0x82>
 80027f0:	687b      	ldr	r3, [r7, #4]
 80027f2:	2202      	movs	r2, #2
 80027f4:	f883 203e 	strb.w	r2, [r3, #62]	@ 0x3e
 80027f8:	e013      	b.n	8002822 <HAL_TIM_PWM_Start+0xaa>
 80027fa:	683b      	ldr	r3, [r7, #0]
 80027fc:	2b04      	cmp	r3, #4
 80027fe:	d104      	bne.n	800280a <HAL_TIM_PWM_Start+0x92>
 8002800:	687b      	ldr	r3, [r7, #4]
 8002802:	2202      	movs	r2, #2
 8002804:	f883 203f 	strb.w	r2, [r3, #63]	@ 0x3f
 8002808:	e00b      	b.n	8002822 <HAL_TIM_PWM_Start+0xaa>
 800280a:	683b      	ldr	r3, [r7, #0]
 800280c:	2b08      	cmp	r3, #8
 800280e:	d104      	bne.n	800281a <HAL_TIM_PWM_Start+0xa2>
 8002810:	687b      	ldr	r3, [r7, #4]
 8002812:	2202      	movs	r2, #2
 8002814:	f883 2040 	strb.w	r2, [r3, #64]	@ 0x40
 8002818:	e003      	b.n	8002822 <HAL_TIM_PWM_Start+0xaa>
 800281a:	687b      	ldr	r3, [r7, #4]
 800281c:	2202      	movs	r2, #2
 800281e:	f883 2041 	strb.w	r2, [r3, #65]	@ 0x41

  /* Enable the Capture compare channel */
  TIM_CCxChannelCmd(htim->Instance, Channel, TIM_CCx_ENABLE);
 8002822:	687b      	ldr	r3, [r7, #4]
 8002824:	681b      	ldr	r3, [r3, #0]
 8002826:	2201      	movs	r2, #1
 8002828:	6839      	ldr	r1, [r7, #0]
 800282a:	4618      	mov	r0, r3
 800282c:	f000 fca6 	bl	800317c <TIM_CCxChannelCmd>

  if (IS_TIM_BREAK_INSTANCE(htim->Instance) != RESET)
 8002830:	687b      	ldr	r3, [r7, #4]
 8002832:	681b      	ldr	r3, [r3, #0]
 8002834:	4a2d      	ldr	r2, [pc, #180]	@ (80028ec <HAL_TIM_PWM_Start+0x174>)
 8002836:	4293      	cmp	r3, r2
 8002838:	d004      	beq.n	8002844 <HAL_TIM_PWM_Start+0xcc>
 800283a:	687b      	ldr	r3, [r7, #4]
 800283c:	681b      	ldr	r3, [r3, #0]
 800283e:	4a2c      	ldr	r2, [pc, #176]	@ (80028f0 <HAL_TIM_PWM_Start+0x178>)
 8002840:	4293      	cmp	r3, r2
 8002842:	d101      	bne.n	8002848 <HAL_TIM_PWM_Start+0xd0>
 8002844:	2301      	movs	r3, #1
 8002846:	e000      	b.n	800284a <HAL_TIM_PWM_Start+0xd2>
 8002848:	2300      	movs	r3, #0
 800284a:	2b00      	cmp	r3, #0
 800284c:	d007      	beq.n	800285e <HAL_TIM_PWM_Start+0xe6>
  {
    /* Enable the main output */
    __HAL_TIM_MOE_ENABLE(htim);
 800284e:	687b      	ldr	r3, [r7, #4]
 8002850:	681b      	ldr	r3, [r3, #0]
 8002852:	6c5a      	ldr	r2, [r3, #68]	@ 0x44
 8002854:	687b      	ldr	r3, [r7, #4]
 8002856:	681b      	ldr	r3, [r3, #0]
 8002858:	f442 4200 	orr.w	r2, r2, #32768	@ 0x8000
 800285c:	645a      	str	r2, [r3, #68]	@ 0x44
  }

  /* Enable the Peripheral, except in trigger mode where enable is automatically done with trigger */
  if (IS_TIM_SLAVE_INSTANCE(htim->Instance))
 800285e:	687b      	ldr	r3, [r7, #4]
 8002860:	681b      	ldr	r3, [r3, #0]
 8002862:	4a22      	ldr	r2, [pc, #136]	@ (80028ec <HAL_TIM_PWM_Start+0x174>)
 8002864:	4293      	cmp	r3, r2
 8002866:	d022      	beq.n	80028ae <HAL_TIM_PWM_Start+0x136>
 8002868:	687b      	ldr	r3, [r7, #4]
 800286a:	681b      	ldr	r3, [r3, #0]
 800286c:	f1b3 4f80 	cmp.w	r3, #1073741824	@ 0x40000000
 8002870:	d01d      	beq.n	80028ae <HAL_TIM_PWM_Start+0x136>
 8002872:	687b      	ldr	r3, [r7, #4]
 8002874:	681b      	ldr	r3, [r3, #0]
 8002876:	4a1f      	ldr	r2, [pc, #124]	@ (80028f4 <HAL_TIM_PWM_Start+0x17c>)
 8002878:	4293      	cmp	r3, r2
 800287a:	d018      	beq.n	80028ae <HAL_TIM_PWM_Start+0x136>
 800287c:	687b      	ldr	r3, [r7, #4]
 800287e:	681b      	ldr	r3, [r3, #0]
 8002880:	4a1d      	ldr	r2, [pc, #116]	@ (80028f8 <HAL_TIM_PWM_Start+0x180>)
 8002882:	4293      	cmp	r3, r2
 8002884:	d013      	beq.n	80028ae <HAL_TIM_PWM_Start+0x136>
 8002886:	687b      	ldr	r3, [r7, #4]
 8002888:	681b      	ldr	r3, [r3, #0]
 800288a:	4a1c      	ldr	r2, [pc, #112]	@ (80028fc <HAL_TIM_PWM_Start+0x184>)
 800288c:	4293      	cmp	r3, r2
 800288e:	d00e      	beq.n	80028ae <HAL_TIM_PWM_Start+0x136>
 8002890:	687b      	ldr	r3, [r7, #4]
 8002892:	681b      	ldr	r3, [r3, #0]
 8002894:	4a16      	ldr	r2, [pc, #88]	@ (80028f0 <HAL_TIM_PWM_Start+0x178>)
 8002896:	4293      	cmp	r3, r2
 8002898:	d009      	beq.n	80028ae <HAL_TIM_PWM_Start+0x136>
 800289a:	687b      	ldr	r3, [r7, #4]
 800289c:	681b      	ldr	r3, [r3, #0]
 800289e:	4a18      	ldr	r2, [pc, #96]	@ (8002900 <HAL_TIM_PWM_Start+0x188>)
 80028a0:	4293      	cmp	r3, r2
 80028a2:	d004      	beq.n	80028ae <HAL_TIM_PWM_Start+0x136>
 80028a4:	687b      	ldr	r3, [r7, #4]
 80028a6:	681b      	ldr	r3, [r3, #0]
 80028a8:	4a16      	ldr	r2, [pc, #88]	@ (8002904 <HAL_TIM_PWM_Start+0x18c>)
 80028aa:	4293      	cmp	r3, r2
 80028ac:	d111      	bne.n	80028d2 <HAL_TIM_PWM_Start+0x15a>
  {
    tmpsmcr = htim->Instance->SMCR & TIM_SMCR_SMS;
 80028ae:	687b      	ldr	r3, [r7, #4]
 80028b0:	681b      	ldr	r3, [r3, #0]
 80028b2:	689b      	ldr	r3, [r3, #8]
 80028b4:	f003 0307 	and.w	r3, r3, #7
 80028b8:	60fb      	str	r3, [r7, #12]
    if (!IS_TIM_SLAVEMODE_TRIGGER_ENABLED(tmpsmcr))
 80028ba:	68fb      	ldr	r3, [r7, #12]
 80028bc:	2b06      	cmp	r3, #6
 80028be:	d010      	beq.n	80028e2 <HAL_TIM_PWM_Start+0x16a>
    {
      __HAL_TIM_ENABLE(htim);
 80028c0:	687b      	ldr	r3, [r7, #4]
 80028c2:	681b      	ldr	r3, [r3, #0]
 80028c4:	681a      	ldr	r2, [r3, #0]
 80028c6:	687b      	ldr	r3, [r7, #4]
 80028c8:	681b      	ldr	r3, [r3, #0]
 80028ca:	f042 0201 	orr.w	r2, r2, #1
 80028ce:	601a      	str	r2, [r3, #0]
    if (!IS_TIM_SLAVEMODE_TRIGGER_ENABLED(tmpsmcr))
 80028d0:	e007      	b.n	80028e2 <HAL_TIM_PWM_Start+0x16a>
    }
  }
  else
  {
    __HAL_TIM_ENABLE(htim);
 80028d2:	687b      	ldr	r3, [r7, #4]
 80028d4:	681b      	ldr	r3, [r3, #0]
 80028d6:	681a      	ldr	r2, [r3, #0]
 80028d8:	687b      	ldr	r3, [r7, #4]
 80028da:	681b      	ldr	r3, [r3, #0]
 80028dc:	f042 0201 	orr.w	r2, r2, #1
 80028e0:	601a      	str	r2, [r3, #0]
  }

  /* Return function status */
  return HAL_OK;
 80028e2:	2300      	movs	r3, #0
}
 80028e4:	4618      	mov	r0, r3
 80028e6:	3710      	adds	r7, #16
 80028e8:	46bd      	mov	sp, r7
 80028ea:	bd80      	pop	{r7, pc}
 80028ec:	40010000 	.word	0x40010000
 80028f0:	40010400 	.word	0x40010400
 80028f4:	40000400 	.word	0x40000400
 80028f8:	40000800 	.word	0x40000800
 80028fc:	40000c00 	.word	0x40000c00
 8002900:	40014000 	.word	0x40014000
 8002904:	40001800 	.word	0x40001800

08002908 <HAL_TIM_IRQHandler>:
  * @brief  This function handles TIM interrupts requests.
  * @param  htim TIM  handle
  * @retval None
  */
void HAL_TIM_IRQHandler(TIM_HandleTypeDef *htim)
{
 8002908:	b580      	push	{r7, lr}
 800290a:	b084      	sub	sp, #16
 800290c:	af00      	add	r7, sp, #0
 800290e:	6078      	str	r0, [r7, #4]
  uint32_t itsource = htim->Instance->DIER;
 8002910:	687b      	ldr	r3, [r7, #4]
 8002912:	681b      	ldr	r3, [r3, #0]
 8002914:	68db      	ldr	r3, [r3, #12]
 8002916:	60fb      	str	r3, [r7, #12]
  uint32_t itflag   = htim->Instance->SR;
 8002918:	687b      	ldr	r3, [r7, #4]
 800291a:	681b      	ldr	r3, [r3, #0]
 800291c:	691b      	ldr	r3, [r3, #16]
 800291e:	60bb      	str	r3, [r7, #8]

  /* Capture compare 1 event */
  if ((itflag & (TIM_FLAG_CC1)) == (TIM_FLAG_CC1))
 8002920:	68bb      	ldr	r3, [r7, #8]
 8002922:	f003 0302 	and.w	r3, r3, #2
 8002926:	2b00      	cmp	r3, #0
 8002928:	d020      	beq.n	800296c <HAL_TIM_IRQHandler+0x64>
  {
    if ((itsource & (TIM_IT_CC1)) == (TIM_IT_CC1))
 800292a:	68fb      	ldr	r3, [r7, #12]
 800292c:	f003 0302 	and.w	r3, r3, #2
 8002930:	2b00      	cmp	r3, #0
 8002932:	d01b      	beq.n	800296c <HAL_TIM_IRQHandler+0x64>
    {
      {
        __HAL_TIM_CLEAR_FLAG(htim, TIM_FLAG_CC1);
 8002934:	687b      	ldr	r3, [r7, #4]
 8002936:	681b      	ldr	r3, [r3, #0]
 8002938:	f06f 0202 	mvn.w	r2, #2
 800293c:	611a      	str	r2, [r3, #16]
        htim->Channel = HAL_TIM_ACTIVE_CHANNEL_1;
 800293e:	687b      	ldr	r3, [r7, #4]
 8002940:	2201      	movs	r2, #1
 8002942:	771a      	strb	r2, [r3, #28]

        /* Input capture event */
        if ((htim->Instance->CCMR1 & TIM_CCMR1_CC1S) != 0x00U)
 8002944:	687b      	ldr	r3, [r7, #4]
 8002946:	681b      	ldr	r3, [r3, #0]
 8002948:	699b      	ldr	r3, [r3, #24]
 800294a:	f003 0303 	and.w	r3, r3, #3
 800294e:	2b00      	cmp	r3, #0
 8002950:	d003      	beq.n	800295a <HAL_TIM_IRQHandler+0x52>
        {
#if (USE_HAL_TIM_REGISTER_CALLBACKS == 1)
          htim->IC_CaptureCallback(htim);
#else
          HAL_TIM_IC_CaptureCallback(htim);
 8002952:	6878      	ldr	r0, [r7, #4]
 8002954:	f000 f99e 	bl	8002c94 <HAL_TIM_IC_CaptureCallback>
 8002958:	e005      	b.n	8002966 <HAL_TIM_IRQHandler+0x5e>
        {
#if (USE_HAL_TIM_REGISTER_CALLBACKS == 1)
          htim->OC_DelayElapsedCallback(htim);
          htim->PWM_PulseFinishedCallback(htim);
#else
          HAL_TIM_OC_DelayElapsedCallback(htim);
 800295a:	6878      	ldr	r0, [r7, #4]
 800295c:	f000 f990 	bl	8002c80 <HAL_TIM_OC_DelayElapsedCallback>
          HAL_TIM_PWM_PulseFinishedCallback(htim);
 8002960:	6878      	ldr	r0, [r7, #4]
 8002962:	f000 f9a1 	bl	8002ca8 <HAL_TIM_PWM_PulseFinishedCallback>
#endif /* USE_HAL_TIM_REGISTER_CALLBACKS */
        }
        htim->Channel = HAL_TIM_ACTIVE_CHANNEL_CLEARED;
 8002966:	687b      	ldr	r3, [r7, #4]
 8002968:	2200      	movs	r2, #0
 800296a:	771a      	strb	r2, [r3, #28]
      }
    }
  }
  /* Capture compare 2 event */
  if ((itflag & (TIM_FLAG_CC2)) == (TIM_FLAG_CC2))
 800296c:	68bb      	ldr	r3, [r7, #8]
 800296e:	f003 0304 	and.w	r3, r3, #4
 8002972:	2b00      	cmp	r3, #0
 8002974:	d020      	beq.n	80029b8 <HAL_TIM_IRQHandler+0xb0>
  {
    if ((itsource & (TIM_IT_CC2)) == (TIM_IT_CC2))
 8002976:	68fb      	ldr	r3, [r7, #12]
 8002978:	f003 0304 	and.w	r3, r3, #4
 800297c:	2b00      	cmp	r3, #0
 800297e:	d01b      	beq.n	80029b8 <HAL_TIM_IRQHandler+0xb0>
    {
      __HAL_TIM_CLEAR_FLAG(htim, TIM_FLAG_CC2);
 8002980:	687b      	ldr	r3, [r7, #4]
 8002982:	681b      	ldr	r3, [r3, #0]
 8002984:	f06f 0204 	mvn.w	r2, #4
 8002988:	611a      	str	r2, [r3, #16]
      htim->Channel = HAL_TIM_ACTIVE_CHANNEL_2;
 800298a:	687b      	ldr	r3, [r7, #4]
 800298c:	2202      	movs	r2, #2
 800298e:	771a      	strb	r2, [r3, #28]
      /* Input capture event */
      if ((htim->Instance->CCMR1 & TIM_CCMR1_CC2S) != 0x00U)
 8002990:	687b      	ldr	r3, [r7, #4]
 8002992:	681b      	ldr	r3, [r3, #0]
 8002994:	699b      	ldr	r3, [r3, #24]
 8002996:	f403 7340 	and.w	r3, r3, #768	@ 0x300
 800299a:	2b00      	cmp	r3, #0
 800299c:	d003      	beq.n	80029a6 <HAL_TIM_IRQHandler+0x9e>
      {
#if (USE_HAL_TIM_REGISTER_CALLBACKS == 1)
        htim->IC_CaptureCallback(htim);
#else
        HAL_TIM_IC_CaptureCallback(htim);
 800299e:	6878      	ldr	r0, [r7, #4]
 80029a0:	f000 f978 	bl	8002c94 <HAL_TIM_IC_CaptureCallback>
 80029a4:	e005      	b.n	80029b2 <HAL_TIM_IRQHandler+0xaa>
      {
#if (USE_HAL_TIM_REGISTER_CALLBACKS == 1)
        htim->OC_DelayElapsedCallback(htim);
        htim->PWM_PulseFinishedCallback(htim);
#else
        HAL_TIM_OC_DelayElapsedCallback(htim);
 80029a6:	6878      	ldr	r0, [r7, #4]
 80029a8:	f000 f96a 	bl	8002c80 <HAL_TIM_OC_DelayElapsedCallback>
        HAL_TIM_PWM_PulseFinishedCallback(htim);
 80029ac:	6878      	ldr	r0, [r7, #4]
 80029ae:	f000 f97b 	bl	8002ca8 <HAL_TIM_PWM_PulseFinishedCallback>
#endif /* USE_HAL_TIM_REGISTER_CALLBACKS */
      }
      htim->Channel = HAL_TIM_ACTIVE_CHANNEL_CLEARED;
 80029b2:	687b      	ldr	r3, [r7, #4]
 80029b4:	2200      	movs	r2, #0
 80029b6:	771a      	strb	r2, [r3, #28]
    }
  }
  /* Capture compare 3 event */
  if ((itflag & (TIM_FLAG_CC3)) == (TIM_FLAG_CC3))
 80029b8:	68bb      	ldr	r3, [r7, #8]
 80029ba:	f003 0308 	and.w	r3, r3, #8
 80029be:	2b00      	cmp	r3, #0
 80029c0:	d020      	beq.n	8002a04 <HAL_TIM_IRQHandler+0xfc>
  {
    if ((itsource & (TIM_IT_CC3)) == (TIM_IT_CC3))
 80029c2:	68fb      	ldr	r3, [r7, #12]
 80029c4:	f003 0308 	and.w	r3, r3, #8
 80029c8:	2b00      	cmp	r3, #0
 80029ca:	d01b      	beq.n	8002a04 <HAL_TIM_IRQHandler+0xfc>
    {
      __HAL_TIM_CLEAR_FLAG(htim, TIM_FLAG_CC3);
 80029cc:	687b      	ldr	r3, [r7, #4]
 80029ce:	681b      	ldr	r3, [r3, #0]
 80029d0:	f06f 0208 	mvn.w	r2, #8
 80029d4:	611a      	str	r2, [r3, #16]
      htim->Channel = HAL_TIM_ACTIVE_CHANNEL_3;
 80029d6:	687b      	ldr	r3, [r7, #4]
 80029d8:	2204      	movs	r2, #4
 80029da:	771a      	strb	r2, [r3, #28]
      /* Input capture event */
      if ((htim->Instance->CCMR2 & TIM_CCMR2_CC3S) != 0x00U)
 80029dc:	687b      	ldr	r3, [r7, #4]
 80029de:	681b      	ldr	r3, [r3, #0]
 80029e0:	69db      	ldr	r3, [r3, #28]
 80029e2:	f003 0303 	and.w	r3, r3, #3
 80029e6:	2b00      	cmp	r3, #0
 80029e8:	d003      	beq.n	80029f2 <HAL_TIM_IRQHandler+0xea>
      {
#if (USE_HAL_TIM_REGISTER_CALLBACKS == 1)
        htim->IC_CaptureCallback(htim);
#else
        HAL_TIM_IC_CaptureCallback(htim);
 80029ea:	6878      	ldr	r0, [r7, #4]
 80029ec:	f000 f952 	bl	8002c94 <HAL_TIM_IC_CaptureCallback>
 80029f0:	e005      	b.n	80029fe <HAL_TIM_IRQHandler+0xf6>
      {
#if (USE_HAL_TIM_REGISTER_CALLBACKS == 1)
        htim->OC_DelayElapsedCallback(htim);
        htim->PWM_PulseFinishedCallback(htim);
#else
        HAL_TIM_OC_DelayElapsedCallback(htim);
 80029f2:	6878      	ldr	r0, [r7, #4]
 80029f4:	f000 f944 	bl	8002c80 <HAL_TIM_OC_DelayElapsedCallback>
        HAL_TIM_PWM_PulseFinishedCallback(htim);
 80029f8:	6878      	ldr	r0, [r7, #4]
 80029fa:	f000 f955 	bl	8002ca8 <HAL_TIM_PWM_PulseFinishedCallback>
#endif /* USE_HAL_TIM_REGISTER_CALLBACKS */
      }
      htim->Channel = HAL_TIM_ACTIVE_CHANNEL_CLEARED;
 80029fe:	687b      	ldr	r3, [r7, #4]
 8002a00:	2200      	movs	r2, #0
 8002a02:	771a      	strb	r2, [r3, #28]
    }
  }
  /* Capture compare 4 event */
  if ((itflag & (TIM_FLAG_CC4)) == (TIM_FLAG_CC4))
 8002a04:	68bb      	ldr	r3, [r7, #8]
 8002a06:	f003 0310 	and.w	r3, r3, #16
 8002a0a:	2b00      	cmp	r3, #0
 8002a0c:	d020      	beq.n	8002a50 <HAL_TIM_IRQHandler+0x148>
  {
    if ((itsource & (TIM_IT_CC4)) == (TIM_IT_CC4))
 8002a0e:	68fb      	ldr	r3, [r7, #12]
 8002a10:	f003 0310 	and.w	r3, r3, #16
 8002a14:	2b00      	cmp	r3, #0
 8002a16:	d01b      	beq.n	8002a50 <HAL_TIM_IRQHandler+0x148>
    {
      __HAL_TIM_CLEAR_FLAG(htim, TIM_FLAG_CC4);
 8002a18:	687b      	ldr	r3, [r7, #4]
 8002a1a:	681b      	ldr	r3, [r3, #0]
 8002a1c:	f06f 0210 	mvn.w	r2, #16
 8002a20:	611a      	str	r2, [r3, #16]
      htim->Channel = HAL_TIM_ACTIVE_CHANNEL_4;
 8002a22:	687b      	ldr	r3, [r7, #4]
 8002a24:	2208      	movs	r2, #8
 8002a26:	771a      	strb	r2, [r3, #28]
      /* Input capture event */
      if ((htim->Instance->CCMR2 & TIM_CCMR2_CC4S) != 0x00U)
 8002a28:	687b      	ldr	r3, [r7, #4]
 8002a2a:	681b      	ldr	r3, [r3, #0]
 8002a2c:	69db      	ldr	r3, [r3, #28]
 8002a2e:	f403 7340 	and.w	r3, r3, #768	@ 0x300
 8002a32:	2b00      	cmp	r3, #0
 8002a34:	d003      	beq.n	8002a3e <HAL_TIM_IRQHandler+0x136>
      {
#if (USE_HAL_TIM_REGISTER_CALLBACKS == 1)
        htim->IC_CaptureCallback(htim);
#else
        HAL_TIM_IC_CaptureCallback(htim);
 8002a36:	6878      	ldr	r0, [r7, #4]
 8002a38:	f000 f92c 	bl	8002c94 <HAL_TIM_IC_CaptureCallback>
 8002a3c:	e005      	b.n	8002a4a <HAL_TIM_IRQHandler+0x142>
      {
#if (USE_HAL_TIM_REGISTER_CALLBACKS == 1)
        htim->OC_DelayElapsedCallback(htim);
        htim->PWM_PulseFinishedCallback(htim);
#else
        HAL_TIM_OC_DelayElapsedCallback(htim);
 8002a3e:	6878      	ldr	r0, [r7, #4]
 8002a40:	f000 f91e 	bl	8002c80 <HAL_TIM_OC_DelayElapsedCallback>
        HAL_TIM_PWM_PulseFinishedCallback(htim);
 8002a44:	6878      	ldr	r0, [r7, #4]
 8002a46:	f000 f92f 	bl	8002ca8 <HAL_TIM_PWM_PulseFinishedCallback>
#endif /* USE_HAL_TIM_REGISTER_CALLBACKS */
      }
      htim->Channel = HAL_TIM_ACTIVE_CHANNEL_CLEARED;
 8002a4a:	687b      	ldr	r3, [r7, #4]
 8002a4c:	2200      	movs	r2, #0
 8002a4e:	771a      	strb	r2, [r3, #28]
    }
  }
  /* TIM Update event */
  if ((itflag & (TIM_FLAG_UPDATE)) == (TIM_FLAG_UPDATE))
 8002a50:	68bb      	ldr	r3, [r7, #8]
 8002a52:	f003 0301 	and.w	r3, r3, #1
 8002a56:	2b00      	cmp	r3, #0
 8002a58:	d00c      	beq.n	8002a74 <HAL_TIM_IRQHandler+0x16c>
  {
    if ((itsource & (TIM_IT_UPDATE)) == (TIM_IT_UPDATE))
 8002a5a:	68fb      	ldr	r3, [r7, #12]
 8002a5c:	f003 0301 	and.w	r3, r3, #1
 8002a60:	2b00      	cmp	r3, #0
 8002a62:	d007      	beq.n	8002a74 <HAL_TIM_IRQHandler+0x16c>
    {
      __HAL_TIM_CLEAR_FLAG(htim, TIM_FLAG_UPDATE);
 8002a64:	687b      	ldr	r3, [r7, #4]
 8002a66:	681b      	ldr	r3, [r3, #0]
 8002a68:	f06f 0201 	mvn.w	r2, #1
 8002a6c:	611a      	str	r2, [r3, #16]
#if (USE_HAL_TIM_REGISTER_CALLBACKS == 1)
      htim->PeriodElapsedCallback(htim);
#else
      HAL_TIM_PeriodElapsedCallback(htim);
 8002a6e:	6878      	ldr	r0, [r7, #4]
 8002a70:	f000 f8fc 	bl	8002c6c <HAL_TIM_PeriodElapsedCallback>
#endif /* USE_HAL_TIM_REGISTER_CALLBACKS */
    }
  }
  /* TIM Break input event */
  if ((itflag & (TIM_FLAG_BREAK)) == (TIM_FLAG_BREAK))
 8002a74:	68bb      	ldr	r3, [r7, #8]
 8002a76:	f003 0380 	and.w	r3, r3, #128	@ 0x80
 8002a7a:	2b00      	cmp	r3, #0
 8002a7c:	d00c      	beq.n	8002a98 <HAL_TIM_IRQHandler+0x190>
  {
    if ((itsource & (TIM_IT_BREAK)) == (TIM_IT_BREAK))
 8002a7e:	68fb      	ldr	r3, [r7, #12]
 8002a80:	f003 0380 	and.w	r3, r3, #128	@ 0x80
 8002a84:	2b00      	cmp	r3, #0
 8002a86:	d007      	beq.n	8002a98 <HAL_TIM_IRQHandler+0x190>
    {
      __HAL_TIM_CLEAR_FLAG(htim, TIM_FLAG_BREAK);
 8002a88:	687b      	ldr	r3, [r7, #4]
 8002a8a:	681b      	ldr	r3, [r3, #0]
 8002a8c:	f06f 0280 	mvn.w	r2, #128	@ 0x80
 8002a90:	611a      	str	r2, [r3, #16]
#if (USE_HAL_TIM_REGISTER_CALLBACKS == 1)
      htim->BreakCallback(htim);
#else
      HAL_TIMEx_BreakCallback(htim);
 8002a92:	6878      	ldr	r0, [r7, #4]
 8002a94:	f000 fc70 	bl	8003378 <HAL_TIMEx_BreakCallback>
#endif /* USE_HAL_TIM_REGISTER_CALLBACKS */
    }
  }
  /* TIM Trigger detection event */
  if ((itflag & (TIM_FLAG_TRIGGER)) == (TIM_FLAG_TRIGGER))
 8002a98:	68bb      	ldr	r3, [r7, #8]
 8002a9a:	f003 0340 	and.w	r3, r3, #64	@ 0x40
 8002a9e:	2b00      	cmp	r3, #0
 8002aa0:	d00c      	beq.n	8002abc <HAL_TIM_IRQHandler+0x1b4>
  {
    if ((itsource & (TIM_IT_TRIGGER)) == (TIM_IT_TRIGGER))
 8002aa2:	68fb      	ldr	r3, [r7, #12]
 8002aa4:	f003 0340 	and.w	r3, r3, #64	@ 0x40
 8002aa8:	2b00      	cmp	r3, #0
 8002aaa:	d007      	beq.n	8002abc <HAL_TIM_IRQHandler+0x1b4>
    {
      __HAL_TIM_CLEAR_FLAG(htim, TIM_FLAG_TRIGGER);
 8002aac:	687b      	ldr	r3, [r7, #4]
 8002aae:	681b      	ldr	r3, [r3, #0]
 8002ab0:	f06f 0240 	mvn.w	r2, #64	@ 0x40
 8002ab4:	611a      	str	r2, [r3, #16]
#if (USE_HAL_TIM_REGISTER_CALLBACKS == 1)
      htim->TriggerCallback(htim);
#else
      HAL_TIM_TriggerCallback(htim);
 8002ab6:	6878      	ldr	r0, [r7, #4]
 8002ab8:	f000 f900 	bl	8002cbc <HAL_TIM_TriggerCallback>
#endif /* USE_HAL_TIM_REGISTER_CALLBACKS */
    }
  }
  /* TIM commutation event */
  if ((itflag & (TIM_FLAG_COM)) == (TIM_FLAG_COM))
 8002abc:	68bb      	ldr	r3, [r7, #8]
 8002abe:	f003 0320 	and.w	r3, r3, #32
 8002ac2:	2b00      	cmp	r3, #0
 8002ac4:	d00c      	beq.n	8002ae0 <HAL_TIM_IRQHandler+0x1d8>
  {
    if ((itsource & (TIM_IT_COM)) == (TIM_IT_COM))
 8002ac6:	68fb      	ldr	r3, [r7, #12]
 8002ac8:	f003 0320 	and.w	r3, r3, #32
 8002acc:	2b00      	cmp	r3, #0
 8002ace:	d007      	beq.n	8002ae0 <HAL_TIM_IRQHandler+0x1d8>
    {
      __HAL_TIM_CLEAR_FLAG(htim, TIM_FLAG_COM);
 8002ad0:	687b      	ldr	r3, [r7, #4]
 8002ad2:	681b      	ldr	r3, [r3, #0]
 8002ad4:	f06f 0220 	mvn.w	r2, #32
 8002ad8:	611a      	str	r2, [r3, #16]
#if (USE_HAL_TIM_REGISTER_CALLBACKS == 1)
      htim->CommutationCallback(htim);
#else
      HAL_TIMEx_CommutCallback(htim);
 8002ada:	6878      	ldr	r0, [r7, #4]
 8002adc:	f000 fc42 	bl	8003364 <HAL_TIMEx_CommutCallback>
#endif /* USE_HAL_TIM_REGISTER_CALLBACKS */
    }
  }
}
 8002ae0:	bf00      	nop
 8002ae2:	3710      	adds	r7, #16
 8002ae4:	46bd      	mov	sp, r7
 8002ae6:	bd80      	pop	{r7, pc}

08002ae8 <HAL_TIM_PWM_ConfigChannel>:
  * @retval HAL status
  */
HAL_StatusTypeDef HAL_TIM_PWM_ConfigChannel(TIM_HandleTypeDef *htim,
                                            const TIM_OC_InitTypeDef *sConfig,
                                            uint32_t Channel)
{
 8002ae8:	b580      	push	{r7, lr}
 8002aea:	b086      	sub	sp, #24
 8002aec:	af00      	add	r7, sp, #0
 8002aee:	60f8      	str	r0, [r7, #12]
 8002af0:	60b9      	str	r1, [r7, #8]
 8002af2:	607a      	str	r2, [r7, #4]
  HAL_StatusTypeDef status = HAL_OK;
 8002af4:	2300      	movs	r3, #0
 8002af6:	75fb      	strb	r3, [r7, #23]
  assert_param(IS_TIM_PWM_MODE(sConfig->OCMode));
  assert_param(IS_TIM_OC_POLARITY(sConfig->OCPolarity));
  assert_param(IS_TIM_FAST_STATE(sConfig->OCFastMode));

  /* Process Locked */
  __HAL_LOCK(htim);
 8002af8:	68fb      	ldr	r3, [r7, #12]
 8002afa:	f893 303c 	ldrb.w	r3, [r3, #60]	@ 0x3c
 8002afe:	2b01      	cmp	r3, #1
 8002b00:	d101      	bne.n	8002b06 <HAL_TIM_PWM_ConfigChannel+0x1e>
 8002b02:	2302      	movs	r3, #2
 8002b04:	e0ae      	b.n	8002c64 <HAL_TIM_PWM_ConfigChannel+0x17c>
 8002b06:	68fb      	ldr	r3, [r7, #12]
 8002b08:	2201      	movs	r2, #1
 8002b0a:	f883 203c 	strb.w	r2, [r3, #60]	@ 0x3c

  switch (Channel)
 8002b0e:	687b      	ldr	r3, [r7, #4]
 8002b10:	2b0c      	cmp	r3, #12
 8002b12:	f200 809f 	bhi.w	8002c54 <HAL_TIM_PWM_ConfigChannel+0x16c>
 8002b16:	a201      	add	r2, pc, #4	@ (adr r2, 8002b1c <HAL_TIM_PWM_ConfigChannel+0x34>)
 8002b18:	f852 f023 	ldr.w	pc, [r2, r3, lsl #2]
 8002b1c:	08002b51 	.word	0x08002b51
 8002b20:	08002c55 	.word	0x08002c55
 8002b24:	08002c55 	.word	0x08002c55
 8002b28:	08002c55 	.word	0x08002c55
 8002b2c:	08002b91 	.word	0x08002b91
 8002b30:	08002c55 	.word	0x08002c55
 8002b34:	08002c55 	.word	0x08002c55
 8002b38:	08002c55 	.word	0x08002c55
 8002b3c:	08002bd3 	.word	0x08002bd3
 8002b40:	08002c55 	.word	0x08002c55
 8002b44:	08002c55 	.word	0x08002c55
 8002b48:	08002c55 	.word	0x08002c55
 8002b4c:	08002c13 	.word	0x08002c13
    {
      /* Check the parameters */
      assert_param(IS_TIM_CC1_INSTANCE(htim->Instance));

      /* Configure the Channel 1 in PWM mode */
      TIM_OC1_SetConfig(htim->Instance, sConfig);
 8002b50:	68fb      	ldr	r3, [r7, #12]
 8002b52:	681b      	ldr	r3, [r3, #0]
 8002b54:	68b9      	ldr	r1, [r7, #8]
 8002b56:	4618      	mov	r0, r3
 8002b58:	f000 f960 	bl	8002e1c <TIM_OC1_SetConfig>

      /* Set the Preload enable bit for channel1 */
      htim->Instance->CCMR1 |= TIM_CCMR1_OC1PE;
 8002b5c:	68fb      	ldr	r3, [r7, #12]
 8002b5e:	681b      	ldr	r3, [r3, #0]
 8002b60:	699a      	ldr	r2, [r3, #24]
 8002b62:	68fb      	ldr	r3, [r7, #12]
 8002b64:	681b      	ldr	r3, [r3, #0]
 8002b66:	f042 0208 	orr.w	r2, r2, #8
 8002b6a:	619a      	str	r2, [r3, #24]

      /* Configure the Output Fast mode */
      htim->Instance->CCMR1 &= ~TIM_CCMR1_OC1FE;
 8002b6c:	68fb      	ldr	r3, [r7, #12]
 8002b6e:	681b      	ldr	r3, [r3, #0]
 8002b70:	699a      	ldr	r2, [r3, #24]
 8002b72:	68fb      	ldr	r3, [r7, #12]
 8002b74:	681b      	ldr	r3, [r3, #0]
 8002b76:	f022 0204 	bic.w	r2, r2, #4
 8002b7a:	619a      	str	r2, [r3, #24]
      htim->Instance->CCMR1 |= sConfig->OCFastMode;
 8002b7c:	68fb      	ldr	r3, [r7, #12]
 8002b7e:	681b      	ldr	r3, [r3, #0]
 8002b80:	6999      	ldr	r1, [r3, #24]
 8002b82:	68bb      	ldr	r3, [r7, #8]
 8002b84:	691a      	ldr	r2, [r3, #16]
 8002b86:	68fb      	ldr	r3, [r7, #12]
 8002b88:	681b      	ldr	r3, [r3, #0]
 8002b8a:	430a      	orrs	r2, r1
 8002b8c:	619a      	str	r2, [r3, #24]
      break;
 8002b8e:	e064      	b.n	8002c5a <HAL_TIM_PWM_ConfigChannel+0x172>
    {
      /* Check the parameters */
      assert_param(IS_TIM_CC2_INSTANCE(htim->Instance));

      /* Configure the Channel 2 in PWM mode */
      TIM_OC2_SetConfig(htim->Instance, sConfig);
 8002b90:	68fb      	ldr	r3, [r7, #12]
 8002b92:	681b      	ldr	r3, [r3, #0]
 8002b94:	68b9      	ldr	r1, [r7, #8]
 8002b96:	4618      	mov	r0, r3
 8002b98:	f000 f9b0 	bl	8002efc <TIM_OC2_SetConfig>

      /* Set the Preload enable bit for channel2 */
      htim->Instance->CCMR1 |= TIM_CCMR1_OC2PE;
 8002b9c:	68fb      	ldr	r3, [r7, #12]
 8002b9e:	681b      	ldr	r3, [r3, #0]
 8002ba0:	699a      	ldr	r2, [r3, #24]
 8002ba2:	68fb      	ldr	r3, [r7, #12]
 8002ba4:	681b      	ldr	r3, [r3, #0]
 8002ba6:	f442 6200 	orr.w	r2, r2, #2048	@ 0x800
 8002baa:	619a      	str	r2, [r3, #24]

      /* Configure the Output Fast mode */
      htim->Instance->CCMR1 &= ~TIM_CCMR1_OC2FE;
 8002bac:	68fb      	ldr	r3, [r7, #12]
 8002bae:	681b      	ldr	r3, [r3, #0]
 8002bb0:	699a      	ldr	r2, [r3, #24]
 8002bb2:	68fb      	ldr	r3, [r7, #12]
 8002bb4:	681b      	ldr	r3, [r3, #0]
 8002bb6:	f422 6280 	bic.w	r2, r2, #1024	@ 0x400
 8002bba:	619a      	str	r2, [r3, #24]
      htim->Instance->CCMR1 |= sConfig->OCFastMode << 8U;
 8002bbc:	68fb      	ldr	r3, [r7, #12]
 8002bbe:	681b      	ldr	r3, [r3, #0]
 8002bc0:	6999      	ldr	r1, [r3, #24]
 8002bc2:	68bb      	ldr	r3, [r7, #8]
 8002bc4:	691b      	ldr	r3, [r3, #16]
 8002bc6:	021a      	lsls	r2, r3, #8
 8002bc8:	68fb      	ldr	r3, [r7, #12]
 8002bca:	681b      	ldr	r3, [r3, #0]
 8002bcc:	430a      	orrs	r2, r1
 8002bce:	619a      	str	r2, [r3, #24]
      break;
 8002bd0:	e043      	b.n	8002c5a <HAL_TIM_PWM_ConfigChannel+0x172>
    {
      /* Check the parameters */
      assert_param(IS_TIM_CC3_INSTANCE(htim->Instance));

      /* Configure the Channel 3 in PWM mode */
      TIM_OC3_SetConfig(htim->Instance, sConfig);
 8002bd2:	68fb      	ldr	r3, [r7, #12]
 8002bd4:	681b      	ldr	r3, [r3, #0]
 8002bd6:	68b9      	ldr	r1, [r7, #8]
 8002bd8:	4618      	mov	r0, r3
 8002bda:	f000 fa05 	bl	8002fe8 <TIM_OC3_SetConfig>

      /* Set the Preload enable bit for channel3 */
      htim->Instance->CCMR2 |= TIM_CCMR2_OC3PE;
 8002bde:	68fb      	ldr	r3, [r7, #12]
 8002be0:	681b      	ldr	r3, [r3, #0]
 8002be2:	69da      	ldr	r2, [r3, #28]
 8002be4:	68fb      	ldr	r3, [r7, #12]
 8002be6:	681b      	ldr	r3, [r3, #0]
 8002be8:	f042 0208 	orr.w	r2, r2, #8
 8002bec:	61da      	str	r2, [r3, #28]

      /* Configure the Output Fast mode */
      htim->Instance->CCMR2 &= ~TIM_CCMR2_OC3FE;
 8002bee:	68fb      	ldr	r3, [r7, #12]
 8002bf0:	681b      	ldr	r3, [r3, #0]
 8002bf2:	69da      	ldr	r2, [r3, #28]
 8002bf4:	68fb      	ldr	r3, [r7, #12]
 8002bf6:	681b      	ldr	r3, [r3, #0]
 8002bf8:	f022 0204 	bic.w	r2, r2, #4
 8002bfc:	61da      	str	r2, [r3, #28]
      htim->Instance->CCMR2 |= sConfig->OCFastMode;
 8002bfe:	68fb      	ldr	r3, [r7, #12]
 8002c00:	681b      	ldr	r3, [r3, #0]
 8002c02:	69d9      	ldr	r1, [r3, #28]
 8002c04:	68bb      	ldr	r3, [r7, #8]
 8002c06:	691a      	ldr	r2, [r3, #16]
 8002c08:	68fb      	ldr	r3, [r7, #12]
 8002c0a:	681b      	ldr	r3, [r3, #0]
 8002c0c:	430a      	orrs	r2, r1
 8002c0e:	61da      	str	r2, [r3, #28]
      break;
 8002c10:	e023      	b.n	8002c5a <HAL_TIM_PWM_ConfigChannel+0x172>
    {
      /* Check the parameters */
      assert_param(IS_TIM_CC4_INSTANCE(htim->Instance));

      /* Configure the Channel 4 in PWM mode */
      TIM_OC4_SetConfig(htim->Instance, sConfig);
 8002c12:	68fb      	ldr	r3, [r7, #12]
 8002c14:	681b      	ldr	r3, [r3, #0]
 8002c16:	68b9      	ldr	r1, [r7, #8]
 8002c18:	4618      	mov	r0, r3
 8002c1a:	f000 fa59 	bl	80030d0 <TIM_OC4_SetConfig>

      /* Set the Preload enable bit for channel4 */
      htim->Instance->CCMR2 |= TIM_CCMR2_OC4PE;
 8002c1e:	68fb      	ldr	r3, [r7, #12]
 8002c20:	681b      	ldr	r3, [r3, #0]
 8002c22:	69da      	ldr	r2, [r3, #28]
 8002c24:	68fb      	ldr	r3, [r7, #12]
 8002c26:	681b      	ldr	r3, [r3, #0]
 8002c28:	f442 6200 	orr.w	r2, r2, #2048	@ 0x800
 8002c2c:	61da      	str	r2, [r3, #28]

      /* Configure the Output Fast mode */
      htim->Instance->CCMR2 &= ~TIM_CCMR2_OC4FE;
 8002c2e:	68fb      	ldr	r3, [r7, #12]
 8002c30:	681b      	ldr	r3, [r3, #0]
 8002c32:	69da      	ldr	r2, [r3, #28]
 8002c34:	68fb      	ldr	r3, [r7, #12]
 8002c36:	681b      	ldr	r3, [r3, #0]
 8002c38:	f422 6280 	bic.w	r2, r2, #1024	@ 0x400
 8002c3c:	61da      	str	r2, [r3, #28]
      htim->Instance->CCMR2 |= sConfig->OCFastMode << 8U;
 8002c3e:	68fb      	ldr	r3, [r7, #12]
 8002c40:	681b      	ldr	r3, [r3, #0]
 8002c42:	69d9      	ldr	r1, [r3, #28]
 8002c44:	68bb      	ldr	r3, [r7, #8]
 8002c46:	691b      	ldr	r3, [r3, #16]
 8002c48:	021a      	lsls	r2, r3, #8
 8002c4a:	68fb      	ldr	r3, [r7, #12]
 8002c4c:	681b      	ldr	r3, [r3, #0]
 8002c4e:	430a      	orrs	r2, r1
 8002c50:	61da      	str	r2, [r3, #28]
      break;
 8002c52:	e002      	b.n	8002c5a <HAL_TIM_PWM_ConfigChannel+0x172>
    }

    default:
      status = HAL_ERROR;
 8002c54:	2301      	movs	r3, #1
 8002c56:	75fb      	strb	r3, [r7, #23]
      break;
 8002c58:	bf00      	nop
  }

  __HAL_UNLOCK(htim);
 8002c5a:	68fb      	ldr	r3, [r7, #12]
 8002c5c:	2200      	movs	r2, #0
 8002c5e:	f883 203c 	strb.w	r2, [r3, #60]	@ 0x3c

  return status;
 8002c62:	7dfb      	ldrb	r3, [r7, #23]
}
 8002c64:	4618      	mov	r0, r3
 8002c66:	3718      	adds	r7, #24
 8002c68:	46bd      	mov	sp, r7
 8002c6a:	bd80      	pop	{r7, pc}

08002c6c <HAL_TIM_PeriodElapsedCallback>:
  * @brief  Period elapsed callback in non-blocking mode
  * @param  htim TIM handle
  * @retval None
  */
__weak void HAL_TIM_PeriodElapsedCallback(TIM_HandleTypeDef *htim)
{
 8002c6c:	b480      	push	{r7}
 8002c6e:	b083      	sub	sp, #12
 8002c70:	af00      	add	r7, sp, #0
 8002c72:	6078      	str	r0, [r7, #4]
  UNUSED(htim);

  /* NOTE : This function should not be modified, when the callback is needed,
            the HAL_TIM_PeriodElapsedCallback could be implemented in the user file
   */
}
 8002c74:	bf00      	nop
 8002c76:	370c      	adds	r7, #12
 8002c78:	46bd      	mov	sp, r7
 8002c7a:	f85d 7b04 	ldr.w	r7, [sp], #4
 8002c7e:	4770      	bx	lr

08002c80 <HAL_TIM_OC_DelayElapsedCallback>:
  * @brief  Output Compare callback in non-blocking mode
  * @param  htim TIM OC handle
  * @retval None
  */
__weak void HAL_TIM_OC_DelayElapsedCallback(TIM_HandleTypeDef *htim)
{
 8002c80:	b480      	push	{r7}
 8002c82:	b083      	sub	sp, #12
 8002c84:	af00      	add	r7, sp, #0
 8002c86:	6078      	str	r0, [r7, #4]
  UNUSED(htim);

  /* NOTE : This function should not be modified, when the callback is needed,
            the HAL_TIM_OC_DelayElapsedCallback could be implemented in the user file
   */
}
 8002c88:	bf00      	nop
 8002c8a:	370c      	adds	r7, #12
 8002c8c:	46bd      	mov	sp, r7
 8002c8e:	f85d 7b04 	ldr.w	r7, [sp], #4
 8002c92:	4770      	bx	lr

08002c94 <HAL_TIM_IC_CaptureCallback>:
  * @brief  Input Capture callback in non-blocking mode
  * @param  htim TIM IC handle
  * @retval None
  */
__weak void HAL_TIM_IC_CaptureCallback(TIM_HandleTypeDef *htim)
{
 8002c94:	b480      	push	{r7}
 8002c96:	b083      	sub	sp, #12
 8002c98:	af00      	add	r7, sp, #0
 8002c9a:	6078      	str	r0, [r7, #4]
  UNUSED(htim);

  /* NOTE : This function should not be modified, when the callback is needed,
            the HAL_TIM_IC_CaptureCallback could be implemented in the user file
   */
}
 8002c9c:	bf00      	nop
 8002c9e:	370c      	adds	r7, #12
 8002ca0:	46bd      	mov	sp, r7
 8002ca2:	f85d 7b04 	ldr.w	r7, [sp], #4
 8002ca6:	4770      	bx	lr

08002ca8 <HAL_TIM_PWM_PulseFinishedCallback>:
  * @brief  PWM Pulse finished callback in non-blocking mode
  * @param  htim TIM handle
  * @retval None
  */
__weak void HAL_TIM_PWM_PulseFinishedCallback(TIM_HandleTypeDef *htim)
{
 8002ca8:	b480      	push	{r7}
 8002caa:	b083      	sub	sp, #12
 8002cac:	af00      	add	r7, sp, #0
 8002cae:	6078      	str	r0, [r7, #4]
  UNUSED(htim);

  /* NOTE : This function should not be modified, when the callback is needed,
            the HAL_TIM_PWM_PulseFinishedCallback could be implemented in the user file
   */
}
 8002cb0:	bf00      	nop
 8002cb2:	370c      	adds	r7, #12
 8002cb4:	46bd      	mov	sp, r7
 8002cb6:	f85d 7b04 	ldr.w	r7, [sp], #4
 8002cba:	4770      	bx	lr

08002cbc <HAL_TIM_TriggerCallback>:
  * @brief  Hall Trigger detection callback in non-blocking mode
  * @param  htim TIM handle
  * @retval None
  */
__weak void HAL_TIM_TriggerCallback(TIM_HandleTypeDef *htim)
{
 8002cbc:	b480      	push	{r7}
 8002cbe:	b083      	sub	sp, #12
 8002cc0:	af00      	add	r7, sp, #0
 8002cc2:	6078      	str	r0, [r7, #4]
  UNUSED(htim);

  /* NOTE : This function should not be modified, when the callback is needed,
            the HAL_TIM_TriggerCallback could be implemented in the user file
   */
}
 8002cc4:	bf00      	nop
 8002cc6:	370c      	adds	r7, #12
 8002cc8:	46bd      	mov	sp, r7
 8002cca:	f85d 7b04 	ldr.w	r7, [sp], #4
 8002cce:	4770      	bx	lr

08002cd0 <TIM_Base_SetConfig>:
  * @param  TIMx TIM peripheral
  * @param  Structure TIM Base configuration structure
  * @retval None
  */
void TIM_Base_SetConfig(TIM_TypeDef *TIMx, const TIM_Base_InitTypeDef *Structure)
{
 8002cd0:	b480      	push	{r7}
 8002cd2:	b085      	sub	sp, #20
 8002cd4:	af00      	add	r7, sp, #0
 8002cd6:	6078      	str	r0, [r7, #4]
 8002cd8:	6039      	str	r1, [r7, #0]
  uint32_t tmpcr1;
  tmpcr1 = TIMx->CR1;
 8002cda:	687b      	ldr	r3, [r7, #4]
 8002cdc:	681b      	ldr	r3, [r3, #0]
 8002cde:	60fb      	str	r3, [r7, #12]

  /* Set TIM Time Base Unit parameters ---------------------------------------*/
  if (IS_TIM_COUNTER_MODE_SELECT_INSTANCE(TIMx))
 8002ce0:	687b      	ldr	r3, [r7, #4]
 8002ce2:	4a43      	ldr	r2, [pc, #268]	@ (8002df0 <TIM_Base_SetConfig+0x120>)
 8002ce4:	4293      	cmp	r3, r2
 8002ce6:	d013      	beq.n	8002d10 <TIM_Base_SetConfig+0x40>
 8002ce8:	687b      	ldr	r3, [r7, #4]
 8002cea:	f1b3 4f80 	cmp.w	r3, #1073741824	@ 0x40000000
 8002cee:	d00f      	beq.n	8002d10 <TIM_Base_SetConfig+0x40>
 8002cf0:	687b      	ldr	r3, [r7, #4]
 8002cf2:	4a40      	ldr	r2, [pc, #256]	@ (8002df4 <TIM_Base_SetConfig+0x124>)
 8002cf4:	4293      	cmp	r3, r2
 8002cf6:	d00b      	beq.n	8002d10 <TIM_Base_SetConfig+0x40>
 8002cf8:	687b      	ldr	r3, [r7, #4]
 8002cfa:	4a3f      	ldr	r2, [pc, #252]	@ (8002df8 <TIM_Base_SetConfig+0x128>)
 8002cfc:	4293      	cmp	r3, r2
 8002cfe:	d007      	beq.n	8002d10 <TIM_Base_SetConfig+0x40>
 8002d00:	687b      	ldr	r3, [r7, #4]
 8002d02:	4a3e      	ldr	r2, [pc, #248]	@ (8002dfc <TIM_Base_SetConfig+0x12c>)
 8002d04:	4293      	cmp	r3, r2
 8002d06:	d003      	beq.n	8002d10 <TIM_Base_SetConfig+0x40>
 8002d08:	687b      	ldr	r3, [r7, #4]
 8002d0a:	4a3d      	ldr	r2, [pc, #244]	@ (8002e00 <TIM_Base_SetConfig+0x130>)
 8002d0c:	4293      	cmp	r3, r2
 8002d0e:	d108      	bne.n	8002d22 <TIM_Base_SetConfig+0x52>
  {
    /* Select the Counter Mode */
    tmpcr1 &= ~(TIM_CR1_DIR | TIM_CR1_CMS);
 8002d10:	68fb      	ldr	r3, [r7, #12]
 8002d12:	f023 0370 	bic.w	r3, r3, #112	@ 0x70
 8002d16:	60fb      	str	r3, [r7, #12]
    tmpcr1 |= Structure->CounterMode;
 8002d18:	683b      	ldr	r3, [r7, #0]
 8002d1a:	685b      	ldr	r3, [r3, #4]
 8002d1c:	68fa      	ldr	r2, [r7, #12]
 8002d1e:	4313      	orrs	r3, r2
 8002d20:	60fb      	str	r3, [r7, #12]
  }

  if (IS_TIM_CLOCK_DIVISION_INSTANCE(TIMx))
 8002d22:	687b      	ldr	r3, [r7, #4]
 8002d24:	4a32      	ldr	r2, [pc, #200]	@ (8002df0 <TIM_Base_SetConfig+0x120>)
 8002d26:	4293      	cmp	r3, r2
 8002d28:	d02b      	beq.n	8002d82 <TIM_Base_SetConfig+0xb2>
 8002d2a:	687b      	ldr	r3, [r7, #4]
 8002d2c:	f1b3 4f80 	cmp.w	r3, #1073741824	@ 0x40000000
 8002d30:	d027      	beq.n	8002d82 <TIM_Base_SetConfig+0xb2>
 8002d32:	687b      	ldr	r3, [r7, #4]
 8002d34:	4a2f      	ldr	r2, [pc, #188]	@ (8002df4 <TIM_Base_SetConfig+0x124>)
 8002d36:	4293      	cmp	r3, r2
 8002d38:	d023      	beq.n	8002d82 <TIM_Base_SetConfig+0xb2>
 8002d3a:	687b      	ldr	r3, [r7, #4]
 8002d3c:	4a2e      	ldr	r2, [pc, #184]	@ (8002df8 <TIM_Base_SetConfig+0x128>)
 8002d3e:	4293      	cmp	r3, r2
 8002d40:	d01f      	beq.n	8002d82 <TIM_Base_SetConfig+0xb2>
 8002d42:	687b      	ldr	r3, [r7, #4]
 8002d44:	4a2d      	ldr	r2, [pc, #180]	@ (8002dfc <TIM_Base_SetConfig+0x12c>)
 8002d46:	4293      	cmp	r3, r2
 8002d48:	d01b      	beq.n	8002d82 <TIM_Base_SetConfig+0xb2>
 8002d4a:	687b      	ldr	r3, [r7, #4]
 8002d4c:	4a2c      	ldr	r2, [pc, #176]	@ (8002e00 <TIM_Base_SetConfig+0x130>)
 8002d4e:	4293      	cmp	r3, r2
 8002d50:	d017      	beq.n	8002d82 <TIM_Base_SetConfig+0xb2>
 8002d52:	687b      	ldr	r3, [r7, #4]
 8002d54:	4a2b      	ldr	r2, [pc, #172]	@ (8002e04 <TIM_Base_SetConfig+0x134>)
 8002d56:	4293      	cmp	r3, r2
 8002d58:	d013      	beq.n	8002d82 <TIM_Base_SetConfig+0xb2>
 8002d5a:	687b      	ldr	r3, [r7, #4]
 8002d5c:	4a2a      	ldr	r2, [pc, #168]	@ (8002e08 <TIM_Base_SetConfig+0x138>)
 8002d5e:	4293      	cmp	r3, r2
 8002d60:	d00f      	beq.n	8002d82 <TIM_Base_SetConfig+0xb2>
 8002d62:	687b      	ldr	r3, [r7, #4]
 8002d64:	4a29      	ldr	r2, [pc, #164]	@ (8002e0c <TIM_Base_SetConfig+0x13c>)
 8002d66:	4293      	cmp	r3, r2
 8002d68:	d00b      	beq.n	8002d82 <TIM_Base_SetConfig+0xb2>
 8002d6a:	687b      	ldr	r3, [r7, #4]
 8002d6c:	4a28      	ldr	r2, [pc, #160]	@ (8002e10 <TIM_Base_SetConfig+0x140>)
 8002d6e:	4293      	cmp	r3, r2
 8002d70:	d007      	beq.n	8002d82 <TIM_Base_SetConfig+0xb2>
 8002d72:	687b      	ldr	r3, [r7, #4]
 8002d74:	4a27      	ldr	r2, [pc, #156]	@ (8002e14 <TIM_Base_SetConfig+0x144>)
 8002d76:	4293      	cmp	r3, r2
 8002d78:	d003      	beq.n	8002d82 <TIM_Base_SetConfig+0xb2>
 8002d7a:	687b      	ldr	r3, [r7, #4]
 8002d7c:	4a26      	ldr	r2, [pc, #152]	@ (8002e18 <TIM_Base_SetConfig+0x148>)
 8002d7e:	4293      	cmp	r3, r2
 8002d80:	d108      	bne.n	8002d94 <TIM_Base_SetConfig+0xc4>
  {
    /* Set the clock division */
    tmpcr1 &= ~TIM_CR1_CKD;
 8002d82:	68fb      	ldr	r3, [r7, #12]
 8002d84:	f423 7340 	bic.w	r3, r3, #768	@ 0x300
 8002d88:	60fb      	str	r3, [r7, #12]
    tmpcr1 |= (uint32_t)Structure->ClockDivision;
 8002d8a:	683b      	ldr	r3, [r7, #0]
 8002d8c:	68db      	ldr	r3, [r3, #12]
 8002d8e:	68fa      	ldr	r2, [r7, #12]
 8002d90:	4313      	orrs	r3, r2
 8002d92:	60fb      	str	r3, [r7, #12]
  }

  /* Set the auto-reload preload */
  MODIFY_REG(tmpcr1, TIM_CR1_ARPE, Structure->AutoReloadPreload);
 8002d94:	68fb      	ldr	r3, [r7, #12]
 8002d96:	f023 0280 	bic.w	r2, r3, #128	@ 0x80
 8002d9a:	683b      	ldr	r3, [r7, #0]
 8002d9c:	695b      	ldr	r3, [r3, #20]
 8002d9e:	4313      	orrs	r3, r2
 8002da0:	60fb      	str	r3, [r7, #12]

  /* Set the Autoreload value */
  TIMx->ARR = (uint32_t)Structure->Period ;
 8002da2:	683b      	ldr	r3, [r7, #0]
 8002da4:	689a      	ldr	r2, [r3, #8]
 8002da6:	687b      	ldr	r3, [r7, #4]
 8002da8:	62da      	str	r2, [r3, #44]	@ 0x2c

  /* Set the Prescaler value */
  TIMx->PSC = Structure->Prescaler;
 8002daa:	683b      	ldr	r3, [r7, #0]
 8002dac:	681a      	ldr	r2, [r3, #0]
 8002dae:	687b      	ldr	r3, [r7, #4]
 8002db0:	629a      	str	r2, [r3, #40]	@ 0x28

  if (IS_TIM_REPETITION_COUNTER_INSTANCE(TIMx))
 8002db2:	687b      	ldr	r3, [r7, #4]
 8002db4:	4a0e      	ldr	r2, [pc, #56]	@ (8002df0 <TIM_Base_SetConfig+0x120>)
 8002db6:	4293      	cmp	r3, r2
 8002db8:	d003      	beq.n	8002dc2 <TIM_Base_SetConfig+0xf2>
 8002dba:	687b      	ldr	r3, [r7, #4]
 8002dbc:	4a10      	ldr	r2, [pc, #64]	@ (8002e00 <TIM_Base_SetConfig+0x130>)
 8002dbe:	4293      	cmp	r3, r2
 8002dc0:	d103      	bne.n	8002dca <TIM_Base_SetConfig+0xfa>
  {
    /* Set the Repetition Counter value */
    TIMx->RCR = Structure->RepetitionCounter;
 8002dc2:	683b      	ldr	r3, [r7, #0]
 8002dc4:	691a      	ldr	r2, [r3, #16]
 8002dc6:	687b      	ldr	r3, [r7, #4]
 8002dc8:	631a      	str	r2, [r3, #48]	@ 0x30
  }

  /* Disable Update Event (UEV) with Update Generation (UG)
     by changing Update Request Source (URS) to avoid Update flag (UIF) */
  SET_BIT(TIMx->CR1, TIM_CR1_URS);
 8002dca:	687b      	ldr	r3, [r7, #4]
 8002dcc:	681b      	ldr	r3, [r3, #0]
 8002dce:	f043 0204 	orr.w	r2, r3, #4
 8002dd2:	687b      	ldr	r3, [r7, #4]
 8002dd4:	601a      	str	r2, [r3, #0]

  /* Generate an update event to reload the Prescaler
     and the repetition counter (only for advanced timer) value immediately */
  TIMx->EGR = TIM_EGR_UG;
 8002dd6:	687b      	ldr	r3, [r7, #4]
 8002dd8:	2201      	movs	r2, #1
 8002dda:	615a      	str	r2, [r3, #20]

  TIMx->CR1 = tmpcr1;
 8002ddc:	687b      	ldr	r3, [r7, #4]
 8002dde:	68fa      	ldr	r2, [r7, #12]
 8002de0:	601a      	str	r2, [r3, #0]
}
 8002de2:	bf00      	nop
 8002de4:	3714      	adds	r7, #20
 8002de6:	46bd      	mov	sp, r7
 8002de8:	f85d 7b04 	ldr.w	r7, [sp], #4
 8002dec:	4770      	bx	lr
 8002dee:	bf00      	nop
 8002df0:	40010000 	.word	0x40010000
 8002df4:	40000400 	.word	0x40000400
 8002df8:	40000800 	.word	0x40000800
 8002dfc:	40000c00 	.word	0x40000c00
 8002e00:	40010400 	.word	0x40010400
 8002e04:	40014000 	.word	0x40014000
 8002e08:	40014400 	.word	0x40014400
 8002e0c:	40014800 	.word	0x40014800
 8002e10:	40001800 	.word	0x40001800
 8002e14:	40001c00 	.word	0x40001c00
 8002e18:	40002000 	.word	0x40002000

08002e1c <TIM_OC1_SetConfig>:
  * @param  TIMx to select the TIM peripheral
  * @param  OC_Config The output configuration structure
  * @retval None
  */
static void TIM_OC1_SetConfig(TIM_TypeDef *TIMx, const TIM_OC_InitTypeDef *OC_Config)
{
 8002e1c:	b480      	push	{r7}
 8002e1e:	b087      	sub	sp, #28
 8002e20:	af00      	add	r7, sp, #0
 8002e22:	6078      	str	r0, [r7, #4]
 8002e24:	6039      	str	r1, [r7, #0]
  uint32_t tmpccmrx;
  uint32_t tmpccer;
  uint32_t tmpcr2;

  /* Get the TIMx CCER register value */
  tmpccer = TIMx->CCER;
 8002e26:	687b      	ldr	r3, [r7, #4]
 8002e28:	6a1b      	ldr	r3, [r3, #32]
 8002e2a:	617b      	str	r3, [r7, #20]

  /* Disable the Channel 1: Reset the CC1E Bit */
  TIMx->CCER &= ~TIM_CCER_CC1E;
 8002e2c:	687b      	ldr	r3, [r7, #4]
 8002e2e:	6a1b      	ldr	r3, [r3, #32]
 8002e30:	f023 0201 	bic.w	r2, r3, #1
 8002e34:	687b      	ldr	r3, [r7, #4]
 8002e36:	621a      	str	r2, [r3, #32]

  /* Get the TIMx CR2 register value */
  tmpcr2 =  TIMx->CR2;
 8002e38:	687b      	ldr	r3, [r7, #4]
 8002e3a:	685b      	ldr	r3, [r3, #4]
 8002e3c:	613b      	str	r3, [r7, #16]

  /* Get the TIMx CCMR1 register value */
  tmpccmrx = TIMx->CCMR1;
 8002e3e:	687b      	ldr	r3, [r7, #4]
 8002e40:	699b      	ldr	r3, [r3, #24]
 8002e42:	60fb      	str	r3, [r7, #12]

  /* Reset the Output Compare Mode Bits */
  tmpccmrx &= ~TIM_CCMR1_OC1M;
 8002e44:	68fb      	ldr	r3, [r7, #12]
 8002e46:	f023 0370 	bic.w	r3, r3, #112	@ 0x70
 8002e4a:	60fb      	str	r3, [r7, #12]
  tmpccmrx &= ~TIM_CCMR1_CC1S;
 8002e4c:	68fb      	ldr	r3, [r7, #12]
 8002e4e:	f023 0303 	bic.w	r3, r3, #3
 8002e52:	60fb      	str	r3, [r7, #12]
  /* Select the Output Compare Mode */
  tmpccmrx |= OC_Config->OCMode;
 8002e54:	683b      	ldr	r3, [r7, #0]
 8002e56:	681b      	ldr	r3, [r3, #0]
 8002e58:	68fa      	ldr	r2, [r7, #12]
 8002e5a:	4313      	orrs	r3, r2
 8002e5c:	60fb      	str	r3, [r7, #12]

  /* Reset the Output Polarity level */
  tmpccer &= ~TIM_CCER_CC1P;
 8002e5e:	697b      	ldr	r3, [r7, #20]
 8002e60:	f023 0302 	bic.w	r3, r3, #2
 8002e64:	617b      	str	r3, [r7, #20]
  /* Set the Output Compare Polarity */
  tmpccer |= OC_Config->OCPolarity;
 8002e66:	683b      	ldr	r3, [r7, #0]
 8002e68:	689b      	ldr	r3, [r3, #8]
 8002e6a:	697a      	ldr	r2, [r7, #20]
 8002e6c:	4313      	orrs	r3, r2
 8002e6e:	617b      	str	r3, [r7, #20]

  if (IS_TIM_CCXN_INSTANCE(TIMx, TIM_CHANNEL_1))
 8002e70:	687b      	ldr	r3, [r7, #4]
 8002e72:	4a20      	ldr	r2, [pc, #128]	@ (8002ef4 <TIM_OC1_SetConfig+0xd8>)
 8002e74:	4293      	cmp	r3, r2
 8002e76:	d003      	beq.n	8002e80 <TIM_OC1_SetConfig+0x64>
 8002e78:	687b      	ldr	r3, [r7, #4]
 8002e7a:	4a1f      	ldr	r2, [pc, #124]	@ (8002ef8 <TIM_OC1_SetConfig+0xdc>)
 8002e7c:	4293      	cmp	r3, r2
 8002e7e:	d10c      	bne.n	8002e9a <TIM_OC1_SetConfig+0x7e>
  {
    /* Check parameters */
    assert_param(IS_TIM_OCN_POLARITY(OC_Config->OCNPolarity));

    /* Reset the Output N Polarity level */
    tmpccer &= ~TIM_CCER_CC1NP;
 8002e80:	697b      	ldr	r3, [r7, #20]
 8002e82:	f023 0308 	bic.w	r3, r3, #8
 8002e86:	617b      	str	r3, [r7, #20]
    /* Set the Output N Polarity */
    tmpccer |= OC_Config->OCNPolarity;
 8002e88:	683b      	ldr	r3, [r7, #0]
 8002e8a:	68db      	ldr	r3, [r3, #12]
 8002e8c:	697a      	ldr	r2, [r7, #20]
 8002e8e:	4313      	orrs	r3, r2
 8002e90:	617b      	str	r3, [r7, #20]
    /* Reset the Output N State */
    tmpccer &= ~TIM_CCER_CC1NE;
 8002e92:	697b      	ldr	r3, [r7, #20]
 8002e94:	f023 0304 	bic.w	r3, r3, #4
 8002e98:	617b      	str	r3, [r7, #20]
  }

  if (IS_TIM_BREAK_INSTANCE(TIMx))
 8002e9a:	687b      	ldr	r3, [r7, #4]
 8002e9c:	4a15      	ldr	r2, [pc, #84]	@ (8002ef4 <TIM_OC1_SetConfig+0xd8>)
 8002e9e:	4293      	cmp	r3, r2
 8002ea0:	d003      	beq.n	8002eaa <TIM_OC1_SetConfig+0x8e>
 8002ea2:	687b      	ldr	r3, [r7, #4]
 8002ea4:	4a14      	ldr	r2, [pc, #80]	@ (8002ef8 <TIM_OC1_SetConfig+0xdc>)
 8002ea6:	4293      	cmp	r3, r2
 8002ea8:	d111      	bne.n	8002ece <TIM_OC1_SetConfig+0xb2>
    /* Check parameters */
    assert_param(IS_TIM_OCNIDLE_STATE(OC_Config->OCNIdleState));
    assert_param(IS_TIM_OCIDLE_STATE(OC_Config->OCIdleState));

    /* Reset the Output Compare and Output Compare N IDLE State */
    tmpcr2 &= ~TIM_CR2_OIS1;
 8002eaa:	693b      	ldr	r3, [r7, #16]
 8002eac:	f423 7380 	bic.w	r3, r3, #256	@ 0x100
 8002eb0:	613b      	str	r3, [r7, #16]
    tmpcr2 &= ~TIM_CR2_OIS1N;
 8002eb2:	693b      	ldr	r3, [r7, #16]
 8002eb4:	f423 7300 	bic.w	r3, r3, #512	@ 0x200
 8002eb8:	613b      	str	r3, [r7, #16]
    /* Set the Output Idle state */
    tmpcr2 |= OC_Config->OCIdleState;
 8002eba:	683b      	ldr	r3, [r7, #0]
 8002ebc:	695b      	ldr	r3, [r3, #20]
 8002ebe:	693a      	ldr	r2, [r7, #16]
 8002ec0:	4313      	orrs	r3, r2
 8002ec2:	613b      	str	r3, [r7, #16]
    /* Set the Output N Idle state */
    tmpcr2 |= OC_Config->OCNIdleState;
 8002ec4:	683b      	ldr	r3, [r7, #0]
 8002ec6:	699b      	ldr	r3, [r3, #24]
 8002ec8:	693a      	ldr	r2, [r7, #16]
 8002eca:	4313      	orrs	r3, r2
 8002ecc:	613b      	str	r3, [r7, #16]
  }

  /* Write to TIMx CR2 */
  TIMx->CR2 = tmpcr2;
 8002ece:	687b      	ldr	r3, [r7, #4]
 8002ed0:	693a      	ldr	r2, [r7, #16]
 8002ed2:	605a      	str	r2, [r3, #4]

  /* Write to TIMx CCMR1 */
  TIMx->CCMR1 = tmpccmrx;
 8002ed4:	687b      	ldr	r3, [r7, #4]
 8002ed6:	68fa      	ldr	r2, [r7, #12]
 8002ed8:	619a      	str	r2, [r3, #24]

  /* Set the Capture Compare Register value */
  TIMx->CCR1 = OC_Config->Pulse;
 8002eda:	683b      	ldr	r3, [r7, #0]
 8002edc:	685a      	ldr	r2, [r3, #4]
 8002ede:	687b      	ldr	r3, [r7, #4]
 8002ee0:	635a      	str	r2, [r3, #52]	@ 0x34

  /* Write to TIMx CCER */
  TIMx->CCER = tmpccer;
 8002ee2:	687b      	ldr	r3, [r7, #4]
 8002ee4:	697a      	ldr	r2, [r7, #20]
 8002ee6:	621a      	str	r2, [r3, #32]
}
 8002ee8:	bf00      	nop
 8002eea:	371c      	adds	r7, #28
 8002eec:	46bd      	mov	sp, r7
 8002eee:	f85d 7b04 	ldr.w	r7, [sp], #4
 8002ef2:	4770      	bx	lr
 8002ef4:	40010000 	.word	0x40010000
 8002ef8:	40010400 	.word	0x40010400

08002efc <TIM_OC2_SetConfig>:
  * @param  TIMx to select the TIM peripheral
  * @param  OC_Config The output configuration structure
  * @retval None
  */
void TIM_OC2_SetConfig(TIM_TypeDef *TIMx, const TIM_OC_InitTypeDef *OC_Config)
{
 8002efc:	b480      	push	{r7}
 8002efe:	b087      	sub	sp, #28
 8002f00:	af00      	add	r7, sp, #0
 8002f02:	6078      	str	r0, [r7, #4]
 8002f04:	6039      	str	r1, [r7, #0]
  uint32_t tmpccmrx;
  uint32_t tmpccer;
  uint32_t tmpcr2;

  /* Get the TIMx CCER register value */
  tmpccer = TIMx->CCER;
 8002f06:	687b      	ldr	r3, [r7, #4]
 8002f08:	6a1b      	ldr	r3, [r3, #32]
 8002f0a:	617b      	str	r3, [r7, #20]

  /* Disable the Channel 2: Reset the CC2E Bit */
  TIMx->CCER &= ~TIM_CCER_CC2E;
 8002f0c:	687b      	ldr	r3, [r7, #4]
 8002f0e:	6a1b      	ldr	r3, [r3, #32]
 8002f10:	f023 0210 	bic.w	r2, r3, #16
 8002f14:	687b      	ldr	r3, [r7, #4]
 8002f16:	621a      	str	r2, [r3, #32]

  /* Get the TIMx CR2 register value */
  tmpcr2 =  TIMx->CR2;
 8002f18:	687b      	ldr	r3, [r7, #4]
 8002f1a:	685b      	ldr	r3, [r3, #4]
 8002f1c:	613b      	str	r3, [r7, #16]

  /* Get the TIMx CCMR1 register value */
  tmpccmrx = TIMx->CCMR1;
 8002f1e:	687b      	ldr	r3, [r7, #4]
 8002f20:	699b      	ldr	r3, [r3, #24]
 8002f22:	60fb      	str	r3, [r7, #12]

  /* Reset the Output Compare mode and Capture/Compare selection Bits */
  tmpccmrx &= ~TIM_CCMR1_OC2M;
 8002f24:	68fb      	ldr	r3, [r7, #12]
 8002f26:	f423 43e0 	bic.w	r3, r3, #28672	@ 0x7000
 8002f2a:	60fb      	str	r3, [r7, #12]
  tmpccmrx &= ~TIM_CCMR1_CC2S;
 8002f2c:	68fb      	ldr	r3, [r7, #12]
 8002f2e:	f423 7340 	bic.w	r3, r3, #768	@ 0x300
 8002f32:	60fb      	str	r3, [r7, #12]

  /* Select the Output Compare Mode */
  tmpccmrx |= (OC_Config->OCMode << 8U);
 8002f34:	683b      	ldr	r3, [r7, #0]
 8002f36:	681b      	ldr	r3, [r3, #0]
 8002f38:	021b      	lsls	r3, r3, #8
 8002f3a:	68fa      	ldr	r2, [r7, #12]
 8002f3c:	4313      	orrs	r3, r2
 8002f3e:	60fb      	str	r3, [r7, #12]

  /* Reset the Output Polarity level */
  tmpccer &= ~TIM_CCER_CC2P;
 8002f40:	697b      	ldr	r3, [r7, #20]
 8002f42:	f023 0320 	bic.w	r3, r3, #32
 8002f46:	617b      	str	r3, [r7, #20]
  /* Set the Output Compare Polarity */
  tmpccer |= (OC_Config->OCPolarity << 4U);
 8002f48:	683b      	ldr	r3, [r7, #0]
 8002f4a:	689b      	ldr	r3, [r3, #8]
 8002f4c:	011b      	lsls	r3, r3, #4
 8002f4e:	697a      	ldr	r2, [r7, #20]
 8002f50:	4313      	orrs	r3, r2
 8002f52:	617b      	str	r3, [r7, #20]

  if (IS_TIM_CCXN_INSTANCE(TIMx, TIM_CHANNEL_2))
 8002f54:	687b      	ldr	r3, [r7, #4]
 8002f56:	4a22      	ldr	r2, [pc, #136]	@ (8002fe0 <TIM_OC2_SetConfig+0xe4>)
 8002f58:	4293      	cmp	r3, r2
 8002f5a:	d003      	beq.n	8002f64 <TIM_OC2_SetConfig+0x68>
 8002f5c:	687b      	ldr	r3, [r7, #4]
 8002f5e:	4a21      	ldr	r2, [pc, #132]	@ (8002fe4 <TIM_OC2_SetConfig+0xe8>)
 8002f60:	4293      	cmp	r3, r2
 8002f62:	d10d      	bne.n	8002f80 <TIM_OC2_SetConfig+0x84>
  {
    assert_param(IS_TIM_OCN_POLARITY(OC_Config->OCNPolarity));

    /* Reset the Output N Polarity level */
    tmpccer &= ~TIM_CCER_CC2NP;
 8002f64:	697b      	ldr	r3, [r7, #20]
 8002f66:	f023 0380 	bic.w	r3, r3, #128	@ 0x80
 8002f6a:	617b      	str	r3, [r7, #20]
    /* Set the Output N Polarity */
    tmpccer |= (OC_Config->OCNPolarity << 4U);
 8002f6c:	683b      	ldr	r3, [r7, #0]
 8002f6e:	68db      	ldr	r3, [r3, #12]
 8002f70:	011b      	lsls	r3, r3, #4
 8002f72:	697a      	ldr	r2, [r7, #20]
 8002f74:	4313      	orrs	r3, r2
 8002f76:	617b      	str	r3, [r7, #20]
    /* Reset the Output N State */
    tmpccer &= ~TIM_CCER_CC2NE;
 8002f78:	697b      	ldr	r3, [r7, #20]
 8002f7a:	f023 0340 	bic.w	r3, r3, #64	@ 0x40
 8002f7e:	617b      	str	r3, [r7, #20]
  }

  if (IS_TIM_BREAK_INSTANCE(TIMx))
 8002f80:	687b      	ldr	r3, [r7, #4]
 8002f82:	4a17      	ldr	r2, [pc, #92]	@ (8002fe0 <TIM_OC2_SetConfig+0xe4>)
 8002f84:	4293      	cmp	r3, r2
 8002f86:	d003      	beq.n	8002f90 <TIM_OC2_SetConfig+0x94>
 8002f88:	687b      	ldr	r3, [r7, #4]
 8002f8a:	4a16      	ldr	r2, [pc, #88]	@ (8002fe4 <TIM_OC2_SetConfig+0xe8>)
 8002f8c:	4293      	cmp	r3, r2
 8002f8e:	d113      	bne.n	8002fb8 <TIM_OC2_SetConfig+0xbc>
    /* Check parameters */
    assert_param(IS_TIM_OCNIDLE_STATE(OC_Config->OCNIdleState));
    assert_param(IS_TIM_OCIDLE_STATE(OC_Config->OCIdleState));

    /* Reset the Output Compare and Output Compare N IDLE State */
    tmpcr2 &= ~TIM_CR2_OIS2;
 8002f90:	693b      	ldr	r3, [r7, #16]
 8002f92:	f423 6380 	bic.w	r3, r3, #1024	@ 0x400
 8002f96:	613b      	str	r3, [r7, #16]
    tmpcr2 &= ~TIM_CR2_OIS2N;
 8002f98:	693b      	ldr	r3, [r7, #16]
 8002f9a:	f423 6300 	bic.w	r3, r3, #2048	@ 0x800
 8002f9e:	613b      	str	r3, [r7, #16]
    /* Set the Output Idle state */
    tmpcr2 |= (OC_Config->OCIdleState << 2U);
 8002fa0:	683b      	ldr	r3, [r7, #0]
 8002fa2:	695b      	ldr	r3, [r3, #20]
 8002fa4:	009b      	lsls	r3, r3, #2
 8002fa6:	693a      	ldr	r2, [r7, #16]
 8002fa8:	4313      	orrs	r3, r2
 8002faa:	613b      	str	r3, [r7, #16]
    /* Set the Output N Idle state */
    tmpcr2 |= (OC_Config->OCNIdleState << 2U);
 8002fac:	683b      	ldr	r3, [r7, #0]
 8002fae:	699b      	ldr	r3, [r3, #24]
 8002fb0:	009b      	lsls	r3, r3, #2
 8002fb2:	693a      	ldr	r2, [r7, #16]
 8002fb4:	4313      	orrs	r3, r2
 8002fb6:	613b      	str	r3, [r7, #16]
  }

  /* Write to TIMx CR2 */
  TIMx->CR2 = tmpcr2;
 8002fb8:	687b      	ldr	r3, [r7, #4]
 8002fba:	693a      	ldr	r2, [r7, #16]
 8002fbc:	605a      	str	r2, [r3, #4]

  /* Write to TIMx CCMR1 */
  TIMx->CCMR1 = tmpccmrx;
 8002fbe:	687b      	ldr	r3, [r7, #4]
 8002fc0:	68fa      	ldr	r2, [r7, #12]
 8002fc2:	619a      	str	r2, [r3, #24]

  /* Set the Capture Compare Register value */
  TIMx->CCR2 = OC_Config->Pulse;
 8002fc4:	683b      	ldr	r3, [r7, #0]
 8002fc6:	685a      	ldr	r2, [r3, #4]
 8002fc8:	687b      	ldr	r3, [r7, #4]
 8002fca:	639a      	str	r2, [r3, #56]	@ 0x38

  /* Write to TIMx CCER */
  TIMx->CCER = tmpccer;
 8002fcc:	687b      	ldr	r3, [r7, #4]
 8002fce:	697a      	ldr	r2, [r7, #20]
 8002fd0:	621a      	str	r2, [r3, #32]
}
 8002fd2:	bf00      	nop
 8002fd4:	371c      	adds	r7, #28
 8002fd6:	46bd      	mov	sp, r7
 8002fd8:	f85d 7b04 	ldr.w	r7, [sp], #4
 8002fdc:	4770      	bx	lr
 8002fde:	bf00      	nop
 8002fe0:	40010000 	.word	0x40010000
 8002fe4:	40010400 	.word	0x40010400

08002fe8 <TIM_OC3_SetConfig>:
  * @param  TIMx to select the TIM peripheral
  * @param  OC_Config The output configuration structure
  * @retval None
  */
static void TIM_OC3_SetConfig(TIM_TypeDef *TIMx, const TIM_OC_InitTypeDef *OC_Config)
{
 8002fe8:	b480      	push	{r7}
 8002fea:	b087      	sub	sp, #28
 8002fec:	af00      	add	r7, sp, #0
 8002fee:	6078      	str	r0, [r7, #4]
 8002ff0:	6039      	str	r1, [r7, #0]
  uint32_t tmpccmrx;
  uint32_t tmpccer;
  uint32_t tmpcr2;

  /* Get the TIMx CCER register value */
  tmpccer = TIMx->CCER;
 8002ff2:	687b      	ldr	r3, [r7, #4]
 8002ff4:	6a1b      	ldr	r3, [r3, #32]
 8002ff6:	617b      	str	r3, [r7, #20]

  /* Disable the Channel 3: Reset the CC2E Bit */
  TIMx->CCER &= ~TIM_CCER_CC3E;
 8002ff8:	687b      	ldr	r3, [r7, #4]
 8002ffa:	6a1b      	ldr	r3, [r3, #32]
 8002ffc:	f423 7280 	bic.w	r2, r3, #256	@ 0x100
 8003000:	687b      	ldr	r3, [r7, #4]
 8003002:	621a      	str	r2, [r3, #32]

  /* Get the TIMx CR2 register value */
  tmpcr2 =  TIMx->CR2;
 8003004:	687b      	ldr	r3, [r7, #4]
 8003006:	685b      	ldr	r3, [r3, #4]
 8003008:	613b      	str	r3, [r7, #16]

  /* Get the TIMx CCMR2 register value */
  tmpccmrx = TIMx->CCMR2;
 800300a:	687b      	ldr	r3, [r7, #4]
 800300c:	69db      	ldr	r3, [r3, #28]
 800300e:	60fb      	str	r3, [r7, #12]

  /* Reset the Output Compare mode and Capture/Compare selection Bits */
  tmpccmrx &= ~TIM_CCMR2_OC3M;
 8003010:	68fb      	ldr	r3, [r7, #12]
 8003012:	f023 0370 	bic.w	r3, r3, #112	@ 0x70
 8003016:	60fb      	str	r3, [r7, #12]
  tmpccmrx &= ~TIM_CCMR2_CC3S;
 8003018:	68fb      	ldr	r3, [r7, #12]
 800301a:	f023 0303 	bic.w	r3, r3, #3
 800301e:	60fb      	str	r3, [r7, #12]
  /* Select the Output Compare Mode */
  tmpccmrx |= OC_Config->OCMode;
 8003020:	683b      	ldr	r3, [r7, #0]
 8003022:	681b      	ldr	r3, [r3, #0]
 8003024:	68fa      	ldr	r2, [r7, #12]
 8003026:	4313      	orrs	r3, r2
 8003028:	60fb      	str	r3, [r7, #12]

  /* Reset the Output Polarity level */
  tmpccer &= ~TIM_CCER_CC3P;
 800302a:	697b      	ldr	r3, [r7, #20]
 800302c:	f423 7300 	bic.w	r3, r3, #512	@ 0x200
 8003030:	617b      	str	r3, [r7, #20]
  /* Set the Output Compare Polarity */
  tmpccer |= (OC_Config->OCPolarity << 8U);
 8003032:	683b      	ldr	r3, [r7, #0]
 8003034:	689b      	ldr	r3, [r3, #8]
 8003036:	021b      	lsls	r3, r3, #8
 8003038:	697a      	ldr	r2, [r7, #20]
 800303a:	4313      	orrs	r3, r2
 800303c:	617b      	str	r3, [r7, #20]

  if (IS_TIM_CCXN_INSTANCE(TIMx, TIM_CHANNEL_3))
 800303e:	687b      	ldr	r3, [r7, #4]
 8003040:	4a21      	ldr	r2, [pc, #132]	@ (80030c8 <TIM_OC3_SetConfig+0xe0>)
 8003042:	4293      	cmp	r3, r2
 8003044:	d003      	beq.n	800304e <TIM_OC3_SetConfig+0x66>
 8003046:	687b      	ldr	r3, [r7, #4]
 8003048:	4a20      	ldr	r2, [pc, #128]	@ (80030cc <TIM_OC3_SetConfig+0xe4>)
 800304a:	4293      	cmp	r3, r2
 800304c:	d10d      	bne.n	800306a <TIM_OC3_SetConfig+0x82>
  {
    assert_param(IS_TIM_OCN_POLARITY(OC_Config->OCNPolarity));

    /* Reset the Output N Polarity level */
    tmpccer &= ~TIM_CCER_CC3NP;
 800304e:	697b      	ldr	r3, [r7, #20]
 8003050:	f423 6300 	bic.w	r3, r3, #2048	@ 0x800
 8003054:	617b      	str	r3, [r7, #20]
    /* Set the Output N Polarity */
    tmpccer |= (OC_Config->OCNPolarity << 8U);
 8003056:	683b      	ldr	r3, [r7, #0]
 8003058:	68db      	ldr	r3, [r3, #12]
 800305a:	021b      	lsls	r3, r3, #8
 800305c:	697a      	ldr	r2, [r7, #20]
 800305e:	4313      	orrs	r3, r2
 8003060:	617b      	str	r3, [r7, #20]
    /* Reset the Output N State */
    tmpccer &= ~TIM_CCER_CC3NE;
 8003062:	697b      	ldr	r3, [r7, #20]
 8003064:	f423 6380 	bic.w	r3, r3, #1024	@ 0x400
 8003068:	617b      	str	r3, [r7, #20]
  }

  if (IS_TIM_BREAK_INSTANCE(TIMx))
 800306a:	687b      	ldr	r3, [r7, #4]
 800306c:	4a16      	ldr	r2, [pc, #88]	@ (80030c8 <TIM_OC3_SetConfig+0xe0>)
 800306e:	4293      	cmp	r3, r2
 8003070:	d003      	beq.n	800307a <TIM_OC3_SetConfig+0x92>
 8003072:	687b      	ldr	r3, [r7, #4]
 8003074:	4a15      	ldr	r2, [pc, #84]	@ (80030cc <TIM_OC3_SetConfig+0xe4>)
 8003076:	4293      	cmp	r3, r2
 8003078:	d113      	bne.n	80030a2 <TIM_OC3_SetConfig+0xba>
    /* Check parameters */
    assert_param(IS_TIM_OCNIDLE_STATE(OC_Config->OCNIdleState));
    assert_param(IS_TIM_OCIDLE_STATE(OC_Config->OCIdleState));

    /* Reset the Output Compare and Output Compare N IDLE State */
    tmpcr2 &= ~TIM_CR2_OIS3;
 800307a:	693b      	ldr	r3, [r7, #16]
 800307c:	f423 5380 	bic.w	r3, r3, #4096	@ 0x1000
 8003080:	613b      	str	r3, [r7, #16]
    tmpcr2 &= ~TIM_CR2_OIS3N;
 8003082:	693b      	ldr	r3, [r7, #16]
 8003084:	f423 5300 	bic.w	r3, r3, #8192	@ 0x2000
 8003088:	613b      	str	r3, [r7, #16]
    /* Set the Output Idle state */
    tmpcr2 |= (OC_Config->OCIdleState << 4U);
 800308a:	683b      	ldr	r3, [r7, #0]
 800308c:	695b      	ldr	r3, [r3, #20]
 800308e:	011b      	lsls	r3, r3, #4
 8003090:	693a      	ldr	r2, [r7, #16]
 8003092:	4313      	orrs	r3, r2
 8003094:	613b      	str	r3, [r7, #16]
    /* Set the Output N Idle state */
    tmpcr2 |= (OC_Config->OCNIdleState << 4U);
 8003096:	683b      	ldr	r3, [r7, #0]
 8003098:	699b      	ldr	r3, [r3, #24]
 800309a:	011b      	lsls	r3, r3, #4
 800309c:	693a      	ldr	r2, [r7, #16]
 800309e:	4313      	orrs	r3, r2
 80030a0:	613b      	str	r3, [r7, #16]
  }

  /* Write to TIMx CR2 */
  TIMx->CR2 = tmpcr2;
 80030a2:	687b      	ldr	r3, [r7, #4]
 80030a4:	693a      	ldr	r2, [r7, #16]
 80030a6:	605a      	str	r2, [r3, #4]

  /* Write to TIMx CCMR2 */
  TIMx->CCMR2 = tmpccmrx;
 80030a8:	687b      	ldr	r3, [r7, #4]
 80030aa:	68fa      	ldr	r2, [r7, #12]
 80030ac:	61da      	str	r2, [r3, #28]

  /* Set the Capture Compare Register value */
  TIMx->CCR3 = OC_Config->Pulse;
 80030ae:	683b      	ldr	r3, [r7, #0]
 80030b0:	685a      	ldr	r2, [r3, #4]
 80030b2:	687b      	ldr	r3, [r7, #4]
 80030b4:	63da      	str	r2, [r3, #60]	@ 0x3c

  /* Write to TIMx CCER */
  TIMx->CCER = tmpccer;
 80030b6:	687b      	ldr	r3, [r7, #4]
 80030b8:	697a      	ldr	r2, [r7, #20]
 80030ba:	621a      	str	r2, [r3, #32]
}
 80030bc:	bf00      	nop
 80030be:	371c      	adds	r7, #28
 80030c0:	46bd      	mov	sp, r7
 80030c2:	f85d 7b04 	ldr.w	r7, [sp], #4
 80030c6:	4770      	bx	lr
 80030c8:	40010000 	.word	0x40010000
 80030cc:	40010400 	.word	0x40010400

080030d0 <TIM_OC4_SetConfig>:
  * @param  TIMx to select the TIM peripheral
  * @param  OC_Config The output configuration structure
  * @retval None
  */
static void TIM_OC4_SetConfig(TIM_TypeDef *TIMx, const TIM_OC_InitTypeDef *OC_Config)
{
 80030d0:	b480      	push	{r7}
 80030d2:	b087      	sub	sp, #28
 80030d4:	af00      	add	r7, sp, #0
 80030d6:	6078      	str	r0, [r7, #4]
 80030d8:	6039      	str	r1, [r7, #0]
  uint32_t tmpccmrx;
  uint32_t tmpccer;
  uint32_t tmpcr2;

  /* Get the TIMx CCER register value */
  tmpccer = TIMx->CCER;
 80030da:	687b      	ldr	r3, [r7, #4]
 80030dc:	6a1b      	ldr	r3, [r3, #32]
 80030de:	613b      	str	r3, [r7, #16]

  /* Disable the Channel 4: Reset the CC4E Bit */
  TIMx->CCER &= ~TIM_CCER_CC4E;
 80030e0:	687b      	ldr	r3, [r7, #4]
 80030e2:	6a1b      	ldr	r3, [r3, #32]
 80030e4:	f423 5280 	bic.w	r2, r3, #4096	@ 0x1000
 80030e8:	687b      	ldr	r3, [r7, #4]
 80030ea:	621a      	str	r2, [r3, #32]

  /* Get the TIMx CR2 register value */
  tmpcr2 =  TIMx->CR2;
 80030ec:	687b      	ldr	r3, [r7, #4]
 80030ee:	685b      	ldr	r3, [r3, #4]
 80030f0:	617b      	str	r3, [r7, #20]

  /* Get the TIMx CCMR2 register value */
  tmpccmrx = TIMx->CCMR2;
 80030f2:	687b      	ldr	r3, [r7, #4]
 80030f4:	69db      	ldr	r3, [r3, #28]
 80030f6:	60fb      	str	r3, [r7, #12]

  /* Reset the Output Compare mode and Capture/Compare selection Bits */
  tmpccmrx &= ~TIM_CCMR2_OC4M;
 80030f8:	68fb      	ldr	r3, [r7, #12]
 80030fa:	f423 43e0 	bic.w	r3, r3, #28672	@ 0x7000
 80030fe:	60fb      	str	r3, [r7, #12]
  tmpccmrx &= ~TIM_CCMR2_CC4S;
 8003100:	68fb      	ldr	r3, [r7, #12]
 8003102:	f423 7340 	bic.w	r3, r3, #768	@ 0x300
 8003106:	60fb      	str	r3, [r7, #12]

  /* Select the Output Compare Mode */
  tmpccmrx |= (OC_Config->OCMode << 8U);
 8003108:	683b      	ldr	r3, [r7, #0]
 800310a:	681b      	ldr	r3, [r3, #0]
 800310c:	021b      	lsls	r3, r3, #8
 800310e:	68fa      	ldr	r2, [r7, #12]
 8003110:	4313      	orrs	r3, r2
 8003112:	60fb      	str	r3, [r7, #12]

  /* Reset the Output Polarity level */
  tmpccer &= ~TIM_CCER_CC4P;
 8003114:	693b      	ldr	r3, [r7, #16]
 8003116:	f423 5300 	bic.w	r3, r3, #8192	@ 0x2000
 800311a:	613b      	str	r3, [r7, #16]
  /* Set the Output Compare Polarity */
  tmpccer |= (OC_Config->OCPolarity << 12U);
 800311c:	683b      	ldr	r3, [r7, #0]
 800311e:	689b      	ldr	r3, [r3, #8]
 8003120:	031b      	lsls	r3, r3, #12
 8003122:	693a      	ldr	r2, [r7, #16]
 8003124:	4313      	orrs	r3, r2
 8003126:	613b      	str	r3, [r7, #16]

  if (IS_TIM_BREAK_INSTANCE(TIMx))
 8003128:	687b      	ldr	r3, [r7, #4]
 800312a:	4a12      	ldr	r2, [pc, #72]	@ (8003174 <TIM_OC4_SetConfig+0xa4>)
 800312c:	4293      	cmp	r3, r2
 800312e:	d003      	beq.n	8003138 <TIM_OC4_SetConfig+0x68>
 8003130:	687b      	ldr	r3, [r7, #4]
 8003132:	4a11      	ldr	r2, [pc, #68]	@ (8003178 <TIM_OC4_SetConfig+0xa8>)
 8003134:	4293      	cmp	r3, r2
 8003136:	d109      	bne.n	800314c <TIM_OC4_SetConfig+0x7c>
  {
    /* Check parameters */
    assert_param(IS_TIM_OCIDLE_STATE(OC_Config->OCIdleState));

    /* Reset the Output Compare IDLE State */
    tmpcr2 &= ~TIM_CR2_OIS4;
 8003138:	697b      	ldr	r3, [r7, #20]
 800313a:	f423 4380 	bic.w	r3, r3, #16384	@ 0x4000
 800313e:	617b      	str	r3, [r7, #20]

    /* Set the Output Idle state */
    tmpcr2 |= (OC_Config->OCIdleState << 6U);
 8003140:	683b      	ldr	r3, [r7, #0]
 8003142:	695b      	ldr	r3, [r3, #20]
 8003144:	019b      	lsls	r3, r3, #6
 8003146:	697a      	ldr	r2, [r7, #20]
 8003148:	4313      	orrs	r3, r2
 800314a:	617b      	str	r3, [r7, #20]
  }

  /* Write to TIMx CR2 */
  TIMx->CR2 = tmpcr2;
 800314c:	687b      	ldr	r3, [r7, #4]
 800314e:	697a      	ldr	r2, [r7, #20]
 8003150:	605a      	str	r2, [r3, #4]

  /* Write to TIMx CCMR2 */
  TIMx->CCMR2 = tmpccmrx;
 8003152:	687b      	ldr	r3, [r7, #4]
 8003154:	68fa      	ldr	r2, [r7, #12]
 8003156:	61da      	str	r2, [r3, #28]

  /* Set the Capture Compare Register value */
  TIMx->CCR4 = OC_Config->Pulse;
 8003158:	683b      	ldr	r3, [r7, #0]
 800315a:	685a      	ldr	r2, [r3, #4]
 800315c:	687b      	ldr	r3, [r7, #4]
 800315e:	641a      	str	r2, [r3, #64]	@ 0x40

  /* Write to TIMx CCER */
  TIMx->CCER = tmpccer;
 8003160:	687b      	ldr	r3, [r7, #4]
 8003162:	693a      	ldr	r2, [r7, #16]
 8003164:	621a      	str	r2, [r3, #32]
}
 8003166:	bf00      	nop
 8003168:	371c      	adds	r7, #28
 800316a:	46bd      	mov	sp, r7
 800316c:	f85d 7b04 	ldr.w	r7, [sp], #4
 8003170:	4770      	bx	lr
 8003172:	bf00      	nop
 8003174:	40010000 	.word	0x40010000
 8003178:	40010400 	.word	0x40010400

0800317c <TIM_CCxChannelCmd>:
  * @param  ChannelState specifies the TIM Channel CCxE bit new state.
  *          This parameter can be: TIM_CCx_ENABLE or TIM_CCx_DISABLE.
  * @retval None
  */
void TIM_CCxChannelCmd(TIM_TypeDef *TIMx, uint32_t Channel, uint32_t ChannelState)
{
 800317c:	b480      	push	{r7}
 800317e:	b087      	sub	sp, #28
 8003180:	af00      	add	r7, sp, #0
 8003182:	60f8      	str	r0, [r7, #12]
 8003184:	60b9      	str	r1, [r7, #8]
 8003186:	607a      	str	r2, [r7, #4]

  /* Check the parameters */
  assert_param(IS_TIM_CC1_INSTANCE(TIMx));
  assert_param(IS_TIM_CHANNELS(Channel));

  tmp = TIM_CCER_CC1E << (Channel & 0x1FU); /* 0x1FU = 31 bits max shift */
 8003188:	68bb      	ldr	r3, [r7, #8]
 800318a:	f003 031f 	and.w	r3, r3, #31
 800318e:	2201      	movs	r2, #1
 8003190:	fa02 f303 	lsl.w	r3, r2, r3
 8003194:	617b      	str	r3, [r7, #20]

  /* Reset the CCxE Bit */
  TIMx->CCER &= ~tmp;
 8003196:	68fb      	ldr	r3, [r7, #12]
 8003198:	6a1a      	ldr	r2, [r3, #32]
 800319a:	697b      	ldr	r3, [r7, #20]
 800319c:	43db      	mvns	r3, r3
 800319e:	401a      	ands	r2, r3
 80031a0:	68fb      	ldr	r3, [r7, #12]
 80031a2:	621a      	str	r2, [r3, #32]

  /* Set or reset the CCxE Bit */
  TIMx->CCER |= (uint32_t)(ChannelState << (Channel & 0x1FU)); /* 0x1FU = 31 bits max shift */
 80031a4:	68fb      	ldr	r3, [r7, #12]
 80031a6:	6a1a      	ldr	r2, [r3, #32]
 80031a8:	68bb      	ldr	r3, [r7, #8]
 80031aa:	f003 031f 	and.w	r3, r3, #31
 80031ae:	6879      	ldr	r1, [r7, #4]
 80031b0:	fa01 f303 	lsl.w	r3, r1, r3
 80031b4:	431a      	orrs	r2, r3
 80031b6:	68fb      	ldr	r3, [r7, #12]
 80031b8:	621a      	str	r2, [r3, #32]
}
 80031ba:	bf00      	nop
 80031bc:	371c      	adds	r7, #28
 80031be:	46bd      	mov	sp, r7
 80031c0:	f85d 7b04 	ldr.w	r7, [sp], #4
 80031c4:	4770      	bx	lr
	...

080031c8 <HAL_TIMEx_MasterConfigSynchronization>:
  *         mode.
  * @retval HAL status
  */
HAL_StatusTypeDef HAL_TIMEx_MasterConfigSynchronization(TIM_HandleTypeDef *htim,
                                                        const TIM_MasterConfigTypeDef *sMasterConfig)
{
 80031c8:	b480      	push	{r7}
 80031ca:	b085      	sub	sp, #20
 80031cc:	af00      	add	r7, sp, #0
 80031ce:	6078      	str	r0, [r7, #4]
 80031d0:	6039      	str	r1, [r7, #0]
  assert_param(IS_TIM_MASTER_INSTANCE(htim->Instance));
  assert_param(IS_TIM_TRGO_SOURCE(sMasterConfig->MasterOutputTrigger));
  assert_param(IS_TIM_MSM_STATE(sMasterConfig->MasterSlaveMode));

  /* Check input state */
  __HAL_LOCK(htim);
 80031d2:	687b      	ldr	r3, [r7, #4]
 80031d4:	f893 303c 	ldrb.w	r3, [r3, #60]	@ 0x3c
 80031d8:	2b01      	cmp	r3, #1
 80031da:	d101      	bne.n	80031e0 <HAL_TIMEx_MasterConfigSynchronization+0x18>
 80031dc:	2302      	movs	r3, #2
 80031de:	e05a      	b.n	8003296 <HAL_TIMEx_MasterConfigSynchronization+0xce>
 80031e0:	687b      	ldr	r3, [r7, #4]
 80031e2:	2201      	movs	r2, #1
 80031e4:	f883 203c 	strb.w	r2, [r3, #60]	@ 0x3c

  /* Change the handler state */
  htim->State = HAL_TIM_STATE_BUSY;
 80031e8:	687b      	ldr	r3, [r7, #4]
 80031ea:	2202      	movs	r2, #2
 80031ec:	f883 203d 	strb.w	r2, [r3, #61]	@ 0x3d

  /* Get the TIMx CR2 register value */
  tmpcr2 = htim->Instance->CR2;
 80031f0:	687b      	ldr	r3, [r7, #4]
 80031f2:	681b      	ldr	r3, [r3, #0]
 80031f4:	685b      	ldr	r3, [r3, #4]
 80031f6:	60fb      	str	r3, [r7, #12]

  /* Get the TIMx SMCR register value */
  tmpsmcr = htim->Instance->SMCR;
 80031f8:	687b      	ldr	r3, [r7, #4]
 80031fa:	681b      	ldr	r3, [r3, #0]
 80031fc:	689b      	ldr	r3, [r3, #8]
 80031fe:	60bb      	str	r3, [r7, #8]

  /* Reset the MMS Bits */
  tmpcr2 &= ~TIM_CR2_MMS;
 8003200:	68fb      	ldr	r3, [r7, #12]
 8003202:	f023 0370 	bic.w	r3, r3, #112	@ 0x70
 8003206:	60fb      	str	r3, [r7, #12]
  /* Select the TRGO source */
  tmpcr2 |=  sMasterConfig->MasterOutputTrigger;
 8003208:	683b      	ldr	r3, [r7, #0]
 800320a:	681b      	ldr	r3, [r3, #0]
 800320c:	68fa      	ldr	r2, [r7, #12]
 800320e:	4313      	orrs	r3, r2
 8003210:	60fb      	str	r3, [r7, #12]

  /* Update TIMx CR2 */
  htim->Instance->CR2 = tmpcr2;
 8003212:	687b      	ldr	r3, [r7, #4]
 8003214:	681b      	ldr	r3, [r3, #0]
 8003216:	68fa      	ldr	r2, [r7, #12]
 8003218:	605a      	str	r2, [r3, #4]

  if (IS_TIM_SLAVE_INSTANCE(htim->Instance))
 800321a:	687b      	ldr	r3, [r7, #4]
 800321c:	681b      	ldr	r3, [r3, #0]
 800321e:	4a21      	ldr	r2, [pc, #132]	@ (80032a4 <HAL_TIMEx_MasterConfigSynchronization+0xdc>)
 8003220:	4293      	cmp	r3, r2
 8003222:	d022      	beq.n	800326a <HAL_TIMEx_MasterConfigSynchronization+0xa2>
 8003224:	687b      	ldr	r3, [r7, #4]
 8003226:	681b      	ldr	r3, [r3, #0]
 8003228:	f1b3 4f80 	cmp.w	r3, #1073741824	@ 0x40000000
 800322c:	d01d      	beq.n	800326a <HAL_TIMEx_MasterConfigSynchronization+0xa2>
 800322e:	687b      	ldr	r3, [r7, #4]
 8003230:	681b      	ldr	r3, [r3, #0]
 8003232:	4a1d      	ldr	r2, [pc, #116]	@ (80032a8 <HAL_TIMEx_MasterConfigSynchronization+0xe0>)
 8003234:	4293      	cmp	r3, r2
 8003236:	d018      	beq.n	800326a <HAL_TIMEx_MasterConfigSynchronization+0xa2>
 8003238:	687b      	ldr	r3, [r7, #4]
 800323a:	681b      	ldr	r3, [r3, #0]
 800323c:	4a1b      	ldr	r2, [pc, #108]	@ (80032ac <HAL_TIMEx_MasterConfigSynchronization+0xe4>)
 800323e:	4293      	cmp	r3, r2
 8003240:	d013      	beq.n	800326a <HAL_TIMEx_MasterConfigSynchronization+0xa2>
 8003242:	687b      	ldr	r3, [r7, #4]
 8003244:	681b      	ldr	r3, [r3, #0]
 8003246:	4a1a      	ldr	r2, [pc, #104]	@ (80032b0 <HAL_TIMEx_MasterConfigSynchronization+0xe8>)
 8003248:	4293      	cmp	r3, r2
 800324a:	d00e      	beq.n	800326a <HAL_TIMEx_MasterConfigSynchronization+0xa2>
 800324c:	687b      	ldr	r3, [r7, #4]
 800324e:	681b      	ldr	r3, [r3, #0]
 8003250:	4a18      	ldr	r2, [pc, #96]	@ (80032b4 <HAL_TIMEx_MasterConfigSynchronization+0xec>)
 8003252:	4293      	cmp	r3, r2
 8003254:	d009      	beq.n	800326a <HAL_TIMEx_MasterConfigSynchronization+0xa2>
 8003256:	687b      	ldr	r3, [r7, #4]
 8003258:	681b      	ldr	r3, [r3, #0]
 800325a:	4a17      	ldr	r2, [pc, #92]	@ (80032b8 <HAL_TIMEx_MasterConfigSynchronization+0xf0>)
 800325c:	4293      	cmp	r3, r2
 800325e:	d004      	beq.n	800326a <HAL_TIMEx_MasterConfigSynchronization+0xa2>
 8003260:	687b      	ldr	r3, [r7, #4]
 8003262:	681b      	ldr	r3, [r3, #0]
 8003264:	4a15      	ldr	r2, [pc, #84]	@ (80032bc <HAL_TIMEx_MasterConfigSynchronization+0xf4>)
 8003266:	4293      	cmp	r3, r2
 8003268:	d10c      	bne.n	8003284 <HAL_TIMEx_MasterConfigSynchronization+0xbc>
  {
    /* Reset the MSM Bit */
    tmpsmcr &= ~TIM_SMCR_MSM;
 800326a:	68bb      	ldr	r3, [r7, #8]
 800326c:	f023 0380 	bic.w	r3, r3, #128	@ 0x80
 8003270:	60bb      	str	r3, [r7, #8]
    /* Set master mode */
    tmpsmcr |= sMasterConfig->MasterSlaveMode;
 8003272:	683b      	ldr	r3, [r7, #0]
 8003274:	685b      	ldr	r3, [r3, #4]
 8003276:	68ba      	ldr	r2, [r7, #8]
 8003278:	4313      	orrs	r3, r2
 800327a:	60bb      	str	r3, [r7, #8]

    /* Update TIMx SMCR */
    htim->Instance->SMCR = tmpsmcr;
 800327c:	687b      	ldr	r3, [r7, #4]
 800327e:	681b      	ldr	r3, [r3, #0]
 8003280:	68ba      	ldr	r2, [r7, #8]
 8003282:	609a      	str	r2, [r3, #8]
  }

  /* Change the htim state */
  htim->State = HAL_TIM_STATE_READY;
 8003284:	687b      	ldr	r3, [r7, #4]
 8003286:	2201      	movs	r2, #1
 8003288:	f883 203d 	strb.w	r2, [r3, #61]	@ 0x3d

  __HAL_UNLOCK(htim);
 800328c:	687b      	ldr	r3, [r7, #4]
 800328e:	2200      	movs	r2, #0
 8003290:	f883 203c 	strb.w	r2, [r3, #60]	@ 0x3c

  return HAL_OK;
 8003294:	2300      	movs	r3, #0
}
 8003296:	4618      	mov	r0, r3
 8003298:	3714      	adds	r7, #20
 800329a:	46bd      	mov	sp, r7
 800329c:	f85d 7b04 	ldr.w	r7, [sp], #4
 80032a0:	4770      	bx	lr
 80032a2:	bf00      	nop
 80032a4:	40010000 	.word	0x40010000
 80032a8:	40000400 	.word	0x40000400
 80032ac:	40000800 	.word	0x40000800
 80032b0:	40000c00 	.word	0x40000c00
 80032b4:	40010400 	.word	0x40010400
 80032b8:	40014000 	.word	0x40014000
 80032bc:	40001800 	.word	0x40001800

080032c0 <HAL_TIMEx_ConfigBreakDeadTime>:
  *         interrupt can be enabled by calling the @ref __HAL_TIM_ENABLE_IT macro.
  * @retval HAL status
  */
HAL_StatusTypeDef HAL_TIMEx_ConfigBreakDeadTime(TIM_HandleTypeDef *htim,
                                                const TIM_BreakDeadTimeConfigTypeDef *sBreakDeadTimeConfig)
{
 80032c0:	b480      	push	{r7}
 80032c2:	b085      	sub	sp, #20
 80032c4:	af00      	add	r7, sp, #0
 80032c6:	6078      	str	r0, [r7, #4]
 80032c8:	6039      	str	r1, [r7, #0]
  /* Keep this variable initialized to 0 as it is used to configure BDTR register */
  uint32_t tmpbdtr = 0U;
 80032ca:	2300      	movs	r3, #0
 80032cc:	60fb      	str	r3, [r7, #12]
  assert_param(IS_TIM_BREAK_STATE(sBreakDeadTimeConfig->BreakState));
  assert_param(IS_TIM_BREAK_POLARITY(sBreakDeadTimeConfig->BreakPolarity));
  assert_param(IS_TIM_AUTOMATIC_OUTPUT_STATE(sBreakDeadTimeConfig->AutomaticOutput));

  /* Check input state */
  __HAL_LOCK(htim);
 80032ce:	687b      	ldr	r3, [r7, #4]
 80032d0:	f893 303c 	ldrb.w	r3, [r3, #60]	@ 0x3c
 80032d4:	2b01      	cmp	r3, #1
 80032d6:	d101      	bne.n	80032dc <HAL_TIMEx_ConfigBreakDeadTime+0x1c>
 80032d8:	2302      	movs	r3, #2
 80032da:	e03d      	b.n	8003358 <HAL_TIMEx_ConfigBreakDeadTime+0x98>
 80032dc:	687b      	ldr	r3, [r7, #4]
 80032de:	2201      	movs	r2, #1
 80032e0:	f883 203c 	strb.w	r2, [r3, #60]	@ 0x3c

  /* Set the Lock level, the Break enable Bit and the Polarity, the OSSR State,
     the OSSI State, the dead time value and the Automatic Output Enable Bit */

  /* Set the BDTR bits */
  MODIFY_REG(tmpbdtr, TIM_BDTR_DTG, sBreakDeadTimeConfig->DeadTime);
 80032e4:	68fb      	ldr	r3, [r7, #12]
 80032e6:	f023 02ff 	bic.w	r2, r3, #255	@ 0xff
 80032ea:	683b      	ldr	r3, [r7, #0]
 80032ec:	68db      	ldr	r3, [r3, #12]
 80032ee:	4313      	orrs	r3, r2
 80032f0:	60fb      	str	r3, [r7, #12]
  MODIFY_REG(tmpbdtr, TIM_BDTR_LOCK, sBreakDeadTimeConfig->LockLevel);
 80032f2:	68fb      	ldr	r3, [r7, #12]
 80032f4:	f423 7240 	bic.w	r2, r3, #768	@ 0x300
 80032f8:	683b      	ldr	r3, [r7, #0]
 80032fa:	689b      	ldr	r3, [r3, #8]
 80032fc:	4313      	orrs	r3, r2
 80032fe:	60fb      	str	r3, [r7, #12]
  MODIFY_REG(tmpbdtr, TIM_BDTR_OSSI, sBreakDeadTimeConfig->OffStateIDLEMode);
 8003300:	68fb      	ldr	r3, [r7, #12]
 8003302:	f423 6280 	bic.w	r2, r3, #1024	@ 0x400
 8003306:	683b      	ldr	r3, [r7, #0]
 8003308:	685b      	ldr	r3, [r3, #4]
 800330a:	4313      	orrs	r3, r2
 800330c:	60fb      	str	r3, [r7, #12]
  MODIFY_REG(tmpbdtr, TIM_BDTR_OSSR, sBreakDeadTimeConfig->OffStateRunMode);
 800330e:	68fb      	ldr	r3, [r7, #12]
 8003310:	f423 6200 	bic.w	r2, r3, #2048	@ 0x800
 8003314:	683b      	ldr	r3, [r7, #0]
 8003316:	681b      	ldr	r3, [r3, #0]
 8003318:	4313      	orrs	r3, r2
 800331a:	60fb      	str	r3, [r7, #12]
  MODIFY_REG(tmpbdtr, TIM_BDTR_BKE, sBreakDeadTimeConfig->BreakState);
 800331c:	68fb      	ldr	r3, [r7, #12]
 800331e:	f423 5280 	bic.w	r2, r3, #4096	@ 0x1000
 8003322:	683b      	ldr	r3, [r7, #0]
 8003324:	691b      	ldr	r3, [r3, #16]
 8003326:	4313      	orrs	r3, r2
 8003328:	60fb      	str	r3, [r7, #12]
  MODIFY_REG(tmpbdtr, TIM_BDTR_BKP, sBreakDeadTimeConfig->BreakPolarity);
 800332a:	68fb      	ldr	r3, [r7, #12]
 800332c:	f423 5200 	bic.w	r2, r3, #8192	@ 0x2000
 8003330:	683b      	ldr	r3, [r7, #0]
 8003332:	695b      	ldr	r3, [r3, #20]
 8003334:	4313      	orrs	r3, r2
 8003336:	60fb      	str	r3, [r7, #12]
  MODIFY_REG(tmpbdtr, TIM_BDTR_AOE, sBreakDeadTimeConfig->AutomaticOutput);
 8003338:	68fb      	ldr	r3, [r7, #12]
 800333a:	f423 4280 	bic.w	r2, r3, #16384	@ 0x4000
 800333e:	683b      	ldr	r3, [r7, #0]
 8003340:	69db      	ldr	r3, [r3, #28]
 8003342:	4313      	orrs	r3, r2
 8003344:	60fb      	str	r3, [r7, #12]


  /* Set TIMx_BDTR */
  htim->Instance->BDTR = tmpbdtr;
 8003346:	687b      	ldr	r3, [r7, #4]
 8003348:	681b      	ldr	r3, [r3, #0]
 800334a:	68fa      	ldr	r2, [r7, #12]
 800334c:	645a      	str	r2, [r3, #68]	@ 0x44

  __HAL_UNLOCK(htim);
 800334e:	687b      	ldr	r3, [r7, #4]
 8003350:	2200      	movs	r2, #0
 8003352:	f883 203c 	strb.w	r2, [r3, #60]	@ 0x3c

  return HAL_OK;
 8003356:	2300      	movs	r3, #0
}
 8003358:	4618      	mov	r0, r3
 800335a:	3714      	adds	r7, #20
 800335c:	46bd      	mov	sp, r7
 800335e:	f85d 7b04 	ldr.w	r7, [sp], #4
 8003362:	4770      	bx	lr

08003364 <HAL_TIMEx_CommutCallback>:
  * @brief  Commutation callback in non-blocking mode
  * @param  htim TIM handle
  * @retval None
  */
__weak void HAL_TIMEx_CommutCallback(TIM_HandleTypeDef *htim)
{
 8003364:	b480      	push	{r7}
 8003366:	b083      	sub	sp, #12
 8003368:	af00      	add	r7, sp, #0
 800336a:	6078      	str	r0, [r7, #4]
  UNUSED(htim);

  /* NOTE : This function should not be modified, when the callback is needed,
            the HAL_TIMEx_CommutCallback could be implemented in the user file
   */
}
 800336c:	bf00      	nop
 800336e:	370c      	adds	r7, #12
 8003370:	46bd      	mov	sp, r7
 8003372:	f85d 7b04 	ldr.w	r7, [sp], #4
 8003376:	4770      	bx	lr

08003378 <HAL_TIMEx_BreakCallback>:
  * @brief  Break detection callback in non-blocking mode
  * @param  htim TIM handle
  * @retval None
  */
__weak void HAL_TIMEx_BreakCallback(TIM_HandleTypeDef *htim)
{
 8003378:	b480      	push	{r7}
 800337a:	b083      	sub	sp, #12
 800337c:	af00      	add	r7, sp, #0
 800337e:	6078      	str	r0, [r7, #4]
  UNUSED(htim);

  /* NOTE : This function should not be modified, when the callback is needed,
            the HAL_TIMEx_BreakCallback could be implemented in the user file
   */
}
 8003380:	bf00      	nop
 8003382:	370c      	adds	r7, #12
 8003384:	46bd      	mov	sp, r7
 8003386:	f85d 7b04 	ldr.w	r7, [sp], #4
 800338a:	4770      	bx	lr

0800338c <HAL_UART_Init>:
  * @param  huart  Pointer to a UART_HandleTypeDef structure that contains
  *                the configuration information for the specified UART module.
  * @retval HAL status
  */
HAL_StatusTypeDef HAL_UART_Init(UART_HandleTypeDef *huart)
{
 800338c:	b580      	push	{r7, lr}
 800338e:	b082      	sub	sp, #8
 8003390:	af00      	add	r7, sp, #0
 8003392:	6078      	str	r0, [r7, #4]
  /* Check the UART handle allocation */
  if (huart == NULL)
 8003394:	687b      	ldr	r3, [r7, #4]
 8003396:	2b00      	cmp	r3, #0
 8003398:	d101      	bne.n	800339e <HAL_UART_Init+0x12>
  {
    return HAL_ERROR;
 800339a:	2301      	movs	r3, #1
 800339c:	e042      	b.n	8003424 <HAL_UART_Init+0x98>
    assert_param(IS_UART_INSTANCE(huart->Instance));
  }
  assert_param(IS_UART_WORD_LENGTH(huart->Init.WordLength));
  assert_param(IS_UART_OVERSAMPLING(huart->Init.OverSampling));

  if (huart->gState == HAL_UART_STATE_RESET)
 800339e:	687b      	ldr	r3, [r7, #4]
 80033a0:	f893 3041 	ldrb.w	r3, [r3, #65]	@ 0x41
 80033a4:	b2db      	uxtb	r3, r3
 80033a6:	2b00      	cmp	r3, #0
 80033a8:	d106      	bne.n	80033b8 <HAL_UART_Init+0x2c>
  {
    /* Allocate lock resource and initialize it */
    huart->Lock = HAL_UNLOCKED;
 80033aa:	687b      	ldr	r3, [r7, #4]
 80033ac:	2200      	movs	r2, #0
 80033ae:	f883 2040 	strb.w	r2, [r3, #64]	@ 0x40

    /* Init the low level hardware */
    huart->MspInitCallback(huart);
#else
    /* Init the low level hardware : GPIO, CLOCK */
    HAL_UART_MspInit(huart);
 80033b2:	6878      	ldr	r0, [r7, #4]
 80033b4:	f7fd fe96 	bl	80010e4 <HAL_UART_MspInit>
#endif /* (USE_HAL_UART_REGISTER_CALLBACKS) */
  }

  huart->gState = HAL_UART_STATE_BUSY;
 80033b8:	687b      	ldr	r3, [r7, #4]
 80033ba:	2224      	movs	r2, #36	@ 0x24
 80033bc:	f883 2041 	strb.w	r2, [r3, #65]	@ 0x41

  /* Disable the peripheral */
  __HAL_UART_DISABLE(huart);
 80033c0:	687b      	ldr	r3, [r7, #4]
 80033c2:	681b      	ldr	r3, [r3, #0]
 80033c4:	68da      	ldr	r2, [r3, #12]
 80033c6:	687b      	ldr	r3, [r7, #4]
 80033c8:	681b      	ldr	r3, [r3, #0]
 80033ca:	f422 5200 	bic.w	r2, r2, #8192	@ 0x2000
 80033ce:	60da      	str	r2, [r3, #12]

  /* Set the UART Communication parameters */
  UART_SetConfig(huart);
 80033d0:	6878      	ldr	r0, [r7, #4]
 80033d2:	f000 f973 	bl	80036bc <UART_SetConfig>

  /* In asynchronous mode, the following bits must be kept cleared:
     - LINEN and CLKEN bits in the USART_CR2 register,
     - SCEN, HDSEL and IREN  bits in the USART_CR3 register.*/
  CLEAR_BIT(huart->Instance->CR2, (USART_CR2_LINEN | USART_CR2_CLKEN));
 80033d6:	687b      	ldr	r3, [r7, #4]
 80033d8:	681b      	ldr	r3, [r3, #0]
 80033da:	691a      	ldr	r2, [r3, #16]
 80033dc:	687b      	ldr	r3, [r7, #4]
 80033de:	681b      	ldr	r3, [r3, #0]
 80033e0:	f422 4290 	bic.w	r2, r2, #18432	@ 0x4800
 80033e4:	611a      	str	r2, [r3, #16]
  CLEAR_BIT(huart->Instance->CR3, (USART_CR3_SCEN | USART_CR3_HDSEL | USART_CR3_IREN));
 80033e6:	687b      	ldr	r3, [r7, #4]
 80033e8:	681b      	ldr	r3, [r3, #0]
 80033ea:	695a      	ldr	r2, [r3, #20]
 80033ec:	687b      	ldr	r3, [r7, #4]
 80033ee:	681b      	ldr	r3, [r3, #0]
 80033f0:	f022 022a 	bic.w	r2, r2, #42	@ 0x2a
 80033f4:	615a      	str	r2, [r3, #20]

  /* Enable the peripheral */
  __HAL_UART_ENABLE(huart);
 80033f6:	687b      	ldr	r3, [r7, #4]
 80033f8:	681b      	ldr	r3, [r3, #0]
 80033fa:	68da      	ldr	r2, [r3, #12]
 80033fc:	687b      	ldr	r3, [r7, #4]
 80033fe:	681b      	ldr	r3, [r3, #0]
 8003400:	f442 5200 	orr.w	r2, r2, #8192	@ 0x2000
 8003404:	60da      	str	r2, [r3, #12]

  /* Initialize the UART state */
  huart->ErrorCode = HAL_UART_ERROR_NONE;
 8003406:	687b      	ldr	r3, [r7, #4]
 8003408:	2200      	movs	r2, #0
 800340a:	645a      	str	r2, [r3, #68]	@ 0x44
  huart->gState = HAL_UART_STATE_READY;
 800340c:	687b      	ldr	r3, [r7, #4]
 800340e:	2220      	movs	r2, #32
 8003410:	f883 2041 	strb.w	r2, [r3, #65]	@ 0x41
  huart->RxState = HAL_UART_STATE_READY;
 8003414:	687b      	ldr	r3, [r7, #4]
 8003416:	2220      	movs	r2, #32
 8003418:	f883 2042 	strb.w	r2, [r3, #66]	@ 0x42
  huart->RxEventType = HAL_UART_RXEVENT_TC;
 800341c:	687b      	ldr	r3, [r7, #4]
 800341e:	2200      	movs	r2, #0
 8003420:	635a      	str	r2, [r3, #52]	@ 0x34

  return HAL_OK;
 8003422:	2300      	movs	r3, #0
}
 8003424:	4618      	mov	r0, r3
 8003426:	3708      	adds	r7, #8
 8003428:	46bd      	mov	sp, r7
 800342a:	bd80      	pop	{r7, pc}

0800342c <HAL_UART_Transmit>:
  * @param  Size  Amount of data elements (u8 or u16) to be sent
  * @param  Timeout Timeout duration
  * @retval HAL status
  */
HAL_StatusTypeDef HAL_UART_Transmit(UART_HandleTypeDef *huart, const uint8_t *pData, uint16_t Size, uint32_t Timeout)
{
 800342c:	b580      	push	{r7, lr}
 800342e:	b08a      	sub	sp, #40	@ 0x28
 8003430:	af02      	add	r7, sp, #8
 8003432:	60f8      	str	r0, [r7, #12]
 8003434:	60b9      	str	r1, [r7, #8]
 8003436:	603b      	str	r3, [r7, #0]
 8003438:	4613      	mov	r3, r2
 800343a:	80fb      	strh	r3, [r7, #6]
  const uint8_t  *pdata8bits;
  const uint16_t *pdata16bits;
  uint32_t tickstart = 0U;
 800343c:	2300      	movs	r3, #0
 800343e:	617b      	str	r3, [r7, #20]

  /* Check that a Tx process is not already ongoing */
  if (huart->gState == HAL_UART_STATE_READY)
 8003440:	68fb      	ldr	r3, [r7, #12]
 8003442:	f893 3041 	ldrb.w	r3, [r3, #65]	@ 0x41
 8003446:	b2db      	uxtb	r3, r3
 8003448:	2b20      	cmp	r3, #32
 800344a:	d175      	bne.n	8003538 <HAL_UART_Transmit+0x10c>
  {
    if ((pData == NULL) || (Size == 0U))
 800344c:	68bb      	ldr	r3, [r7, #8]
 800344e:	2b00      	cmp	r3, #0
 8003450:	d002      	beq.n	8003458 <HAL_UART_Transmit+0x2c>
 8003452:	88fb      	ldrh	r3, [r7, #6]
 8003454:	2b00      	cmp	r3, #0
 8003456:	d101      	bne.n	800345c <HAL_UART_Transmit+0x30>
    {
      return  HAL_ERROR;
 8003458:	2301      	movs	r3, #1
 800345a:	e06e      	b.n	800353a <HAL_UART_Transmit+0x10e>
    }

    huart->ErrorCode = HAL_UART_ERROR_NONE;
 800345c:	68fb      	ldr	r3, [r7, #12]
 800345e:	2200      	movs	r2, #0
 8003460:	645a      	str	r2, [r3, #68]	@ 0x44
    huart->gState = HAL_UART_STATE_BUSY_TX;
 8003462:	68fb      	ldr	r3, [r7, #12]
 8003464:	2221      	movs	r2, #33	@ 0x21
 8003466:	f883 2041 	strb.w	r2, [r3, #65]	@ 0x41

    /* Init tickstart for timeout management */
    tickstart = HAL_GetTick();
 800346a:	f7fd ff13 	bl	8001294 <HAL_GetTick>
 800346e:	6178      	str	r0, [r7, #20]

    huart->TxXferSize = Size;
 8003470:	68fb      	ldr	r3, [r7, #12]
 8003472:	88fa      	ldrh	r2, [r7, #6]
 8003474:	849a      	strh	r2, [r3, #36]	@ 0x24
    huart->TxXferCount = Size;
 8003476:	68fb      	ldr	r3, [r7, #12]
 8003478:	88fa      	ldrh	r2, [r7, #6]
 800347a:	84da      	strh	r2, [r3, #38]	@ 0x26

    /* In case of 9bits/No Parity transfer, pData needs to be handled as a uint16_t pointer */
    if ((huart->Init.WordLength == UART_WORDLENGTH_9B) && (huart->Init.Parity == UART_PARITY_NONE))
 800347c:	68fb      	ldr	r3, [r7, #12]
 800347e:	689b      	ldr	r3, [r3, #8]
 8003480:	f5b3 5f80 	cmp.w	r3, #4096	@ 0x1000
 8003484:	d108      	bne.n	8003498 <HAL_UART_Transmit+0x6c>
 8003486:	68fb      	ldr	r3, [r7, #12]
 8003488:	691b      	ldr	r3, [r3, #16]
 800348a:	2b00      	cmp	r3, #0
 800348c:	d104      	bne.n	8003498 <HAL_UART_Transmit+0x6c>
    {
      pdata8bits  = NULL;
 800348e:	2300      	movs	r3, #0
 8003490:	61fb      	str	r3, [r7, #28]
      pdata16bits = (const uint16_t *) pData;
 8003492:	68bb      	ldr	r3, [r7, #8]
 8003494:	61bb      	str	r3, [r7, #24]
 8003496:	e003      	b.n	80034a0 <HAL_UART_Transmit+0x74>
    }
    else
    {
      pdata8bits  = pData;
 8003498:	68bb      	ldr	r3, [r7, #8]
 800349a:	61fb      	str	r3, [r7, #28]
      pdata16bits = NULL;
 800349c:	2300      	movs	r3, #0
 800349e:	61bb      	str	r3, [r7, #24]
    }

    while (huart->TxXferCount > 0U)
 80034a0:	e02e      	b.n	8003500 <HAL_UART_Transmit+0xd4>
    {
      if (UART_WaitOnFlagUntilTimeout(huart, UART_FLAG_TXE, RESET, tickstart, Timeout) != HAL_OK)
 80034a2:	683b      	ldr	r3, [r7, #0]
 80034a4:	9300      	str	r3, [sp, #0]
 80034a6:	697b      	ldr	r3, [r7, #20]
 80034a8:	2200      	movs	r2, #0
 80034aa:	2180      	movs	r1, #128	@ 0x80
 80034ac:	68f8      	ldr	r0, [r7, #12]
 80034ae:	f000 f848 	bl	8003542 <UART_WaitOnFlagUntilTimeout>
 80034b2:	4603      	mov	r3, r0
 80034b4:	2b00      	cmp	r3, #0
 80034b6:	d005      	beq.n	80034c4 <HAL_UART_Transmit+0x98>
      {
        huart->gState = HAL_UART_STATE_READY;
 80034b8:	68fb      	ldr	r3, [r7, #12]
 80034ba:	2220      	movs	r2, #32
 80034bc:	f883 2041 	strb.w	r2, [r3, #65]	@ 0x41

        return HAL_TIMEOUT;
 80034c0:	2303      	movs	r3, #3
 80034c2:	e03a      	b.n	800353a <HAL_UART_Transmit+0x10e>
      }
      if (pdata8bits == NULL)
 80034c4:	69fb      	ldr	r3, [r7, #28]
 80034c6:	2b00      	cmp	r3, #0
 80034c8:	d10b      	bne.n	80034e2 <HAL_UART_Transmit+0xb6>
      {
        huart->Instance->DR = (uint16_t)(*pdata16bits & 0x01FFU);
 80034ca:	69bb      	ldr	r3, [r7, #24]
 80034cc:	881b      	ldrh	r3, [r3, #0]
 80034ce:	461a      	mov	r2, r3
 80034d0:	68fb      	ldr	r3, [r7, #12]
 80034d2:	681b      	ldr	r3, [r3, #0]
 80034d4:	f3c2 0208 	ubfx	r2, r2, #0, #9
 80034d8:	605a      	str	r2, [r3, #4]
        pdata16bits++;
 80034da:	69bb      	ldr	r3, [r7, #24]
 80034dc:	3302      	adds	r3, #2
 80034de:	61bb      	str	r3, [r7, #24]
 80034e0:	e007      	b.n	80034f2 <HAL_UART_Transmit+0xc6>
      }
      else
      {
        huart->Instance->DR = (uint8_t)(*pdata8bits & 0xFFU);
 80034e2:	69fb      	ldr	r3, [r7, #28]
 80034e4:	781a      	ldrb	r2, [r3, #0]
 80034e6:	68fb      	ldr	r3, [r7, #12]
 80034e8:	681b      	ldr	r3, [r3, #0]
 80034ea:	605a      	str	r2, [r3, #4]
        pdata8bits++;
 80034ec:	69fb      	ldr	r3, [r7, #28]
 80034ee:	3301      	adds	r3, #1
 80034f0:	61fb      	str	r3, [r7, #28]
      }
      huart->TxXferCount--;
 80034f2:	68fb      	ldr	r3, [r7, #12]
 80034f4:	8cdb      	ldrh	r3, [r3, #38]	@ 0x26
 80034f6:	b29b      	uxth	r3, r3
 80034f8:	3b01      	subs	r3, #1
 80034fa:	b29a      	uxth	r2, r3
 80034fc:	68fb      	ldr	r3, [r7, #12]
 80034fe:	84da      	strh	r2, [r3, #38]	@ 0x26
    while (huart->TxXferCount > 0U)
 8003500:	68fb      	ldr	r3, [r7, #12]
 8003502:	8cdb      	ldrh	r3, [r3, #38]	@ 0x26
 8003504:	b29b      	uxth	r3, r3
 8003506:	2b00      	cmp	r3, #0
 8003508:	d1cb      	bne.n	80034a2 <HAL_UART_Transmit+0x76>
    }

    if (UART_WaitOnFlagUntilTimeout(huart, UART_FLAG_TC, RESET, tickstart, Timeout) != HAL_OK)
 800350a:	683b      	ldr	r3, [r7, #0]
 800350c:	9300      	str	r3, [sp, #0]
 800350e:	697b      	ldr	r3, [r7, #20]
 8003510:	2200      	movs	r2, #0
 8003512:	2140      	movs	r1, #64	@ 0x40
 8003514:	68f8      	ldr	r0, [r7, #12]
 8003516:	f000 f814 	bl	8003542 <UART_WaitOnFlagUntilTimeout>
 800351a:	4603      	mov	r3, r0
 800351c:	2b00      	cmp	r3, #0
 800351e:	d005      	beq.n	800352c <HAL_UART_Transmit+0x100>
    {
      huart->gState = HAL_UART_STATE_READY;
 8003520:	68fb      	ldr	r3, [r7, #12]
 8003522:	2220      	movs	r2, #32
 8003524:	f883 2041 	strb.w	r2, [r3, #65]	@ 0x41

      return HAL_TIMEOUT;
 8003528:	2303      	movs	r3, #3
 800352a:	e006      	b.n	800353a <HAL_UART_Transmit+0x10e>
    }

    /* At end of Tx process, restore huart->gState to Ready */
    huart->gState = HAL_UART_STATE_READY;
 800352c:	68fb      	ldr	r3, [r7, #12]
 800352e:	2220      	movs	r2, #32
 8003530:	f883 2041 	strb.w	r2, [r3, #65]	@ 0x41

    return HAL_OK;
 8003534:	2300      	movs	r3, #0
 8003536:	e000      	b.n	800353a <HAL_UART_Transmit+0x10e>
  }
  else
  {
    return HAL_BUSY;
 8003538:	2302      	movs	r3, #2
  }
}
 800353a:	4618      	mov	r0, r3
 800353c:	3720      	adds	r7, #32
 800353e:	46bd      	mov	sp, r7
 8003540:	bd80      	pop	{r7, pc}

08003542 <UART_WaitOnFlagUntilTimeout>:
  * @param  Timeout Timeout duration
  * @retval HAL status
  */
static HAL_StatusTypeDef UART_WaitOnFlagUntilTimeout(UART_HandleTypeDef *huart, uint32_t Flag, FlagStatus Status,
                                                     uint32_t Tickstart, uint32_t Timeout)
{
 8003542:	b580      	push	{r7, lr}
 8003544:	b086      	sub	sp, #24
 8003546:	af00      	add	r7, sp, #0
 8003548:	60f8      	str	r0, [r7, #12]
 800354a:	60b9      	str	r1, [r7, #8]
 800354c:	603b      	str	r3, [r7, #0]
 800354e:	4613      	mov	r3, r2
 8003550:	71fb      	strb	r3, [r7, #7]
  /* Wait until flag is set */
  while ((__HAL_UART_GET_FLAG(huart, Flag) ? SET : RESET) == Status)
 8003552:	e03b      	b.n	80035cc <UART_WaitOnFlagUntilTimeout+0x8a>
  {
    /* Check for the Timeout */
    if (Timeout != HAL_MAX_DELAY)
 8003554:	6a3b      	ldr	r3, [r7, #32]
 8003556:	f1b3 3fff 	cmp.w	r3, #4294967295	@ 0xffffffff
 800355a:	d037      	beq.n	80035cc <UART_WaitOnFlagUntilTimeout+0x8a>
    {
      if (((HAL_GetTick() - Tickstart) > Timeout) || (Timeout == 0U))
 800355c:	f7fd fe9a 	bl	8001294 <HAL_GetTick>
 8003560:	4602      	mov	r2, r0
 8003562:	683b      	ldr	r3, [r7, #0]
 8003564:	1ad3      	subs	r3, r2, r3
 8003566:	6a3a      	ldr	r2, [r7, #32]
 8003568:	429a      	cmp	r2, r3
 800356a:	d302      	bcc.n	8003572 <UART_WaitOnFlagUntilTimeout+0x30>
 800356c:	6a3b      	ldr	r3, [r7, #32]
 800356e:	2b00      	cmp	r3, #0
 8003570:	d101      	bne.n	8003576 <UART_WaitOnFlagUntilTimeout+0x34>
      {

        return HAL_TIMEOUT;
 8003572:	2303      	movs	r3, #3
 8003574:	e03a      	b.n	80035ec <UART_WaitOnFlagUntilTimeout+0xaa>
      }

      if ((READ_BIT(huart->Instance->CR1, USART_CR1_RE) != 0U) && (Flag != UART_FLAG_TXE) && (Flag != UART_FLAG_TC))
 8003576:	68fb      	ldr	r3, [r7, #12]
 8003578:	681b      	ldr	r3, [r3, #0]
 800357a:	68db      	ldr	r3, [r3, #12]
 800357c:	f003 0304 	and.w	r3, r3, #4
 8003580:	2b00      	cmp	r3, #0
 8003582:	d023      	beq.n	80035cc <UART_WaitOnFlagUntilTimeout+0x8a>
 8003584:	68bb      	ldr	r3, [r7, #8]
 8003586:	2b80      	cmp	r3, #128	@ 0x80
 8003588:	d020      	beq.n	80035cc <UART_WaitOnFlagUntilTimeout+0x8a>
 800358a:	68bb      	ldr	r3, [r7, #8]
 800358c:	2b40      	cmp	r3, #64	@ 0x40
 800358e:	d01d      	beq.n	80035cc <UART_WaitOnFlagUntilTimeout+0x8a>
      {
        if (__HAL_UART_GET_FLAG(huart, UART_FLAG_ORE) == SET)
 8003590:	68fb      	ldr	r3, [r7, #12]
 8003592:	681b      	ldr	r3, [r3, #0]
 8003594:	681b      	ldr	r3, [r3, #0]
 8003596:	f003 0308 	and.w	r3, r3, #8
 800359a:	2b08      	cmp	r3, #8
 800359c:	d116      	bne.n	80035cc <UART_WaitOnFlagUntilTimeout+0x8a>
        {
          /* Clear Overrun Error flag*/
          __HAL_UART_CLEAR_OREFLAG(huart);
 800359e:	2300      	movs	r3, #0
 80035a0:	617b      	str	r3, [r7, #20]
 80035a2:	68fb      	ldr	r3, [r7, #12]
 80035a4:	681b      	ldr	r3, [r3, #0]
 80035a6:	681b      	ldr	r3, [r3, #0]
 80035a8:	617b      	str	r3, [r7, #20]
 80035aa:	68fb      	ldr	r3, [r7, #12]
 80035ac:	681b      	ldr	r3, [r3, #0]
 80035ae:	685b      	ldr	r3, [r3, #4]
 80035b0:	617b      	str	r3, [r7, #20]
 80035b2:	697b      	ldr	r3, [r7, #20]

          /* Blocking error : transfer is aborted
          Set the UART state ready to be able to start again the process,
          Disable Rx Interrupts if ongoing */
          UART_EndRxTransfer(huart);
 80035b4:	68f8      	ldr	r0, [r7, #12]
 80035b6:	f000 f81d 	bl	80035f4 <UART_EndRxTransfer>

          huart->ErrorCode = HAL_UART_ERROR_ORE;
 80035ba:	68fb      	ldr	r3, [r7, #12]
 80035bc:	2208      	movs	r2, #8
 80035be:	645a      	str	r2, [r3, #68]	@ 0x44

          /* Process Unlocked */
          __HAL_UNLOCK(huart);
 80035c0:	68fb      	ldr	r3, [r7, #12]
 80035c2:	2200      	movs	r2, #0
 80035c4:	f883 2040 	strb.w	r2, [r3, #64]	@ 0x40

          return HAL_ERROR;
 80035c8:	2301      	movs	r3, #1
 80035ca:	e00f      	b.n	80035ec <UART_WaitOnFlagUntilTimeout+0xaa>
  while ((__HAL_UART_GET_FLAG(huart, Flag) ? SET : RESET) == Status)
 80035cc:	68fb      	ldr	r3, [r7, #12]
 80035ce:	681b      	ldr	r3, [r3, #0]
 80035d0:	681a      	ldr	r2, [r3, #0]
 80035d2:	68bb      	ldr	r3, [r7, #8]
 80035d4:	4013      	ands	r3, r2
 80035d6:	68ba      	ldr	r2, [r7, #8]
 80035d8:	429a      	cmp	r2, r3
 80035da:	bf0c      	ite	eq
 80035dc:	2301      	moveq	r3, #1
 80035de:	2300      	movne	r3, #0
 80035e0:	b2db      	uxtb	r3, r3
 80035e2:	461a      	mov	r2, r3
 80035e4:	79fb      	ldrb	r3, [r7, #7]
 80035e6:	429a      	cmp	r2, r3
 80035e8:	d0b4      	beq.n	8003554 <UART_WaitOnFlagUntilTimeout+0x12>
        }
      }
    }
  }
  return HAL_OK;
 80035ea:	2300      	movs	r3, #0
}
 80035ec:	4618      	mov	r0, r3
 80035ee:	3718      	adds	r7, #24
 80035f0:	46bd      	mov	sp, r7
 80035f2:	bd80      	pop	{r7, pc}

080035f4 <UART_EndRxTransfer>:
  * @brief  End ongoing Rx transfer on UART peripheral (following error detection or Reception completion).
  * @param  huart UART handle.
  * @retval None
  */
static void UART_EndRxTransfer(UART_HandleTypeDef *huart)
{
 80035f4:	b480      	push	{r7}
 80035f6:	b095      	sub	sp, #84	@ 0x54
 80035f8:	af00      	add	r7, sp, #0
 80035fa:	6078      	str	r0, [r7, #4]
  /* Disable RXNE, PE and ERR (Frame error, noise error, overrun error) interrupts */
  ATOMIC_CLEAR_BIT(huart->Instance->CR1, (USART_CR1_RXNEIE | USART_CR1_PEIE));
 80035fc:	687b      	ldr	r3, [r7, #4]
 80035fe:	681b      	ldr	r3, [r3, #0]
 8003600:	330c      	adds	r3, #12
 8003602:	637b      	str	r3, [r7, #52]	@ 0x34
   __ASM volatile ("ldrex %0, %1" : "=r" (result) : "Q" (*addr) );
 8003604:	6b7b      	ldr	r3, [r7, #52]	@ 0x34
 8003606:	e853 3f00 	ldrex	r3, [r3]
 800360a:	633b      	str	r3, [r7, #48]	@ 0x30
   return(result);
 800360c:	6b3b      	ldr	r3, [r7, #48]	@ 0x30
 800360e:	f423 7390 	bic.w	r3, r3, #288	@ 0x120
 8003612:	64fb      	str	r3, [r7, #76]	@ 0x4c
 8003614:	687b      	ldr	r3, [r7, #4]
 8003616:	681b      	ldr	r3, [r3, #0]
 8003618:	330c      	adds	r3, #12
 800361a:	6cfa      	ldr	r2, [r7, #76]	@ 0x4c
 800361c:	643a      	str	r2, [r7, #64]	@ 0x40
 800361e:	63fb      	str	r3, [r7, #60]	@ 0x3c
   __ASM volatile ("strex %0, %2, %1" : "=&r" (result), "=Q" (*addr) : "r" (value) );
 8003620:	6bf9      	ldr	r1, [r7, #60]	@ 0x3c
 8003622:	6c3a      	ldr	r2, [r7, #64]	@ 0x40
 8003624:	e841 2300 	strex	r3, r2, [r1]
 8003628:	63bb      	str	r3, [r7, #56]	@ 0x38
   return(result);
 800362a:	6bbb      	ldr	r3, [r7, #56]	@ 0x38
 800362c:	2b00      	cmp	r3, #0
 800362e:	d1e5      	bne.n	80035fc <UART_EndRxTransfer+0x8>
  ATOMIC_CLEAR_BIT(huart->Instance->CR3, USART_CR3_EIE);
 8003630:	687b      	ldr	r3, [r7, #4]
 8003632:	681b      	ldr	r3, [r3, #0]
 8003634:	3314      	adds	r3, #20
 8003636:	623b      	str	r3, [r7, #32]
   __ASM volatile ("ldrex %0, %1" : "=r" (result) : "Q" (*addr) );
 8003638:	6a3b      	ldr	r3, [r7, #32]
 800363a:	e853 3f00 	ldrex	r3, [r3]
 800363e:	61fb      	str	r3, [r7, #28]
   return(result);
 8003640:	69fb      	ldr	r3, [r7, #28]
 8003642:	f023 0301 	bic.w	r3, r3, #1
 8003646:	64bb      	str	r3, [r7, #72]	@ 0x48
 8003648:	687b      	ldr	r3, [r7, #4]
 800364a:	681b      	ldr	r3, [r3, #0]
 800364c:	3314      	adds	r3, #20
 800364e:	6cba      	ldr	r2, [r7, #72]	@ 0x48
 8003650:	62fa      	str	r2, [r7, #44]	@ 0x2c
 8003652:	62bb      	str	r3, [r7, #40]	@ 0x28
   __ASM volatile ("strex %0, %2, %1" : "=&r" (result), "=Q" (*addr) : "r" (value) );
 8003654:	6ab9      	ldr	r1, [r7, #40]	@ 0x28
 8003656:	6afa      	ldr	r2, [r7, #44]	@ 0x2c
 8003658:	e841 2300 	strex	r3, r2, [r1]
 800365c:	627b      	str	r3, [r7, #36]	@ 0x24
   return(result);
 800365e:	6a7b      	ldr	r3, [r7, #36]	@ 0x24
 8003660:	2b00      	cmp	r3, #0
 8003662:	d1e5      	bne.n	8003630 <UART_EndRxTransfer+0x3c>

  /* In case of reception waiting for IDLE event, disable also the IDLE IE interrupt source */
  if (huart->ReceptionType == HAL_UART_RECEPTION_TOIDLE)
 8003664:	687b      	ldr	r3, [r7, #4]
 8003666:	6b1b      	ldr	r3, [r3, #48]	@ 0x30
 8003668:	2b01      	cmp	r3, #1
 800366a:	d119      	bne.n	80036a0 <UART_EndRxTransfer+0xac>
  {
    ATOMIC_CLEAR_BIT(huart->Instance->CR1, USART_CR1_IDLEIE);
 800366c:	687b      	ldr	r3, [r7, #4]
 800366e:	681b      	ldr	r3, [r3, #0]
 8003670:	330c      	adds	r3, #12
 8003672:	60fb      	str	r3, [r7, #12]
   __ASM volatile ("ldrex %0, %1" : "=r" (result) : "Q" (*addr) );
 8003674:	68fb      	ldr	r3, [r7, #12]
 8003676:	e853 3f00 	ldrex	r3, [r3]
 800367a:	60bb      	str	r3, [r7, #8]
   return(result);
 800367c:	68bb      	ldr	r3, [r7, #8]
 800367e:	f023 0310 	bic.w	r3, r3, #16
 8003682:	647b      	str	r3, [r7, #68]	@ 0x44
 8003684:	687b      	ldr	r3, [r7, #4]
 8003686:	681b      	ldr	r3, [r3, #0]
 8003688:	330c      	adds	r3, #12
 800368a:	6c7a      	ldr	r2, [r7, #68]	@ 0x44
 800368c:	61ba      	str	r2, [r7, #24]
 800368e:	617b      	str	r3, [r7, #20]
   __ASM volatile ("strex %0, %2, %1" : "=&r" (result), "=Q" (*addr) : "r" (value) );
 8003690:	6979      	ldr	r1, [r7, #20]
 8003692:	69ba      	ldr	r2, [r7, #24]
 8003694:	e841 2300 	strex	r3, r2, [r1]
 8003698:	613b      	str	r3, [r7, #16]
   return(result);
 800369a:	693b      	ldr	r3, [r7, #16]
 800369c:	2b00      	cmp	r3, #0
 800369e:	d1e5      	bne.n	800366c <UART_EndRxTransfer+0x78>
  }

  /* At end of Rx process, restore huart->RxState to Ready */
  huart->RxState = HAL_UART_STATE_READY;
 80036a0:	687b      	ldr	r3, [r7, #4]
 80036a2:	2220      	movs	r2, #32
 80036a4:	f883 2042 	strb.w	r2, [r3, #66]	@ 0x42
  huart->ReceptionType = HAL_UART_RECEPTION_STANDARD;
 80036a8:	687b      	ldr	r3, [r7, #4]
 80036aa:	2200      	movs	r2, #0
 80036ac:	631a      	str	r2, [r3, #48]	@ 0x30
}
 80036ae:	bf00      	nop
 80036b0:	3754      	adds	r7, #84	@ 0x54
 80036b2:	46bd      	mov	sp, r7
 80036b4:	f85d 7b04 	ldr.w	r7, [sp], #4
 80036b8:	4770      	bx	lr
	...

080036bc <UART_SetConfig>:
  * @param  huart  Pointer to a UART_HandleTypeDef structure that contains
  *                the configuration information for the specified UART module.
  * @retval None
  */
static void UART_SetConfig(UART_HandleTypeDef *huart)
{
 80036bc:	e92d 4fb0 	stmdb	sp!, {r4, r5, r7, r8, r9, sl, fp, lr}
 80036c0:	b0c0      	sub	sp, #256	@ 0x100
 80036c2:	af00      	add	r7, sp, #0
 80036c4:	f8c7 00f4 	str.w	r0, [r7, #244]	@ 0xf4
  assert_param(IS_UART_MODE(huart->Init.Mode));

  /*-------------------------- USART CR2 Configuration -----------------------*/
  /* Configure the UART Stop Bits: Set STOP[13:12] bits
     according to huart->Init.StopBits value */
  MODIFY_REG(huart->Instance->CR2, USART_CR2_STOP, huart->Init.StopBits);
 80036c8:	f8d7 30f4 	ldr.w	r3, [r7, #244]	@ 0xf4
 80036cc:	681b      	ldr	r3, [r3, #0]
 80036ce:	691b      	ldr	r3, [r3, #16]
 80036d0:	f423 5040 	bic.w	r0, r3, #12288	@ 0x3000
 80036d4:	f8d7 30f4 	ldr.w	r3, [r7, #244]	@ 0xf4
 80036d8:	68d9      	ldr	r1, [r3, #12]
 80036da:	f8d7 30f4 	ldr.w	r3, [r7, #244]	@ 0xf4
 80036de:	681a      	ldr	r2, [r3, #0]
 80036e0:	ea40 0301 	orr.w	r3, r0, r1
 80036e4:	6113      	str	r3, [r2, #16]
     Set the M bits according to huart->Init.WordLength value
     Set PCE and PS bits according to huart->Init.Parity value
     Set TE and RE bits according to huart->Init.Mode value
     Set OVER8 bit according to huart->Init.OverSampling value */

  tmpreg = (uint32_t)huart->Init.WordLength | huart->Init.Parity | huart->Init.Mode | huart->Init.OverSampling;
 80036e6:	f8d7 30f4 	ldr.w	r3, [r7, #244]	@ 0xf4
 80036ea:	689a      	ldr	r2, [r3, #8]
 80036ec:	f8d7 30f4 	ldr.w	r3, [r7, #244]	@ 0xf4
 80036f0:	691b      	ldr	r3, [r3, #16]
 80036f2:	431a      	orrs	r2, r3
 80036f4:	f8d7 30f4 	ldr.w	r3, [r7, #244]	@ 0xf4
 80036f8:	695b      	ldr	r3, [r3, #20]
 80036fa:	431a      	orrs	r2, r3
 80036fc:	f8d7 30f4 	ldr.w	r3, [r7, #244]	@ 0xf4
 8003700:	69db      	ldr	r3, [r3, #28]
 8003702:	4313      	orrs	r3, r2
 8003704:	f8c7 30f8 	str.w	r3, [r7, #248]	@ 0xf8
  MODIFY_REG(huart->Instance->CR1,
 8003708:	f8d7 30f4 	ldr.w	r3, [r7, #244]	@ 0xf4
 800370c:	681b      	ldr	r3, [r3, #0]
 800370e:	68db      	ldr	r3, [r3, #12]
 8003710:	f423 4116 	bic.w	r1, r3, #38400	@ 0x9600
 8003714:	f021 010c 	bic.w	r1, r1, #12
 8003718:	f8d7 30f4 	ldr.w	r3, [r7, #244]	@ 0xf4
 800371c:	681a      	ldr	r2, [r3, #0]
 800371e:	f8d7 30f8 	ldr.w	r3, [r7, #248]	@ 0xf8
 8003722:	430b      	orrs	r3, r1
 8003724:	60d3      	str	r3, [r2, #12]
             (uint32_t)(USART_CR1_M | USART_CR1_PCE | USART_CR1_PS | USART_CR1_TE | USART_CR1_RE | USART_CR1_OVER8),
             tmpreg);

  /*-------------------------- USART CR3 Configuration -----------------------*/
  /* Configure the UART HFC: Set CTSE and RTSE bits according to huart->Init.HwFlowCtl value */
  MODIFY_REG(huart->Instance->CR3, (USART_CR3_RTSE | USART_CR3_CTSE), huart->Init.HwFlowCtl);
 8003726:	f8d7 30f4 	ldr.w	r3, [r7, #244]	@ 0xf4
 800372a:	681b      	ldr	r3, [r3, #0]
 800372c:	695b      	ldr	r3, [r3, #20]
 800372e:	f423 7040 	bic.w	r0, r3, #768	@ 0x300
 8003732:	f8d7 30f4 	ldr.w	r3, [r7, #244]	@ 0xf4
 8003736:	6999      	ldr	r1, [r3, #24]
 8003738:	f8d7 30f4 	ldr.w	r3, [r7, #244]	@ 0xf4
 800373c:	681a      	ldr	r2, [r3, #0]
 800373e:	ea40 0301 	orr.w	r3, r0, r1
 8003742:	6153      	str	r3, [r2, #20]
    if ((huart->Instance == USART1) || (huart->Instance == USART6) || (huart->Instance == UART9) || (huart->Instance == UART10))
    {
      pclk = HAL_RCC_GetPCLK2Freq();
    }
#elif defined(USART6)
    if ((huart->Instance == USART1) || (huart->Instance == USART6))
 8003744:	f8d7 30f4 	ldr.w	r3, [r7, #244]	@ 0xf4
 8003748:	681a      	ldr	r2, [r3, #0]
 800374a:	4b8f      	ldr	r3, [pc, #572]	@ (8003988 <UART_SetConfig+0x2cc>)
 800374c:	429a      	cmp	r2, r3
 800374e:	d005      	beq.n	800375c <UART_SetConfig+0xa0>
 8003750:	f8d7 30f4 	ldr.w	r3, [r7, #244]	@ 0xf4
 8003754:	681a      	ldr	r2, [r3, #0]
 8003756:	4b8d      	ldr	r3, [pc, #564]	@ (800398c <UART_SetConfig+0x2d0>)
 8003758:	429a      	cmp	r2, r3
 800375a:	d104      	bne.n	8003766 <UART_SetConfig+0xaa>
    {
      pclk = HAL_RCC_GetPCLK2Freq();
 800375c:	f7fe f9e0 	bl	8001b20 <HAL_RCC_GetPCLK2Freq>
 8003760:	f8c7 00fc 	str.w	r0, [r7, #252]	@ 0xfc
 8003764:	e003      	b.n	800376e <UART_SetConfig+0xb2>
      pclk = HAL_RCC_GetPCLK2Freq();
    }
#endif /* USART6 */
    else
    {
      pclk = HAL_RCC_GetPCLK1Freq();
 8003766:	f7fe f9c7 	bl	8001af8 <HAL_RCC_GetPCLK1Freq>
 800376a:	f8c7 00fc 	str.w	r0, [r7, #252]	@ 0xfc
    }
  /*-------------------------- USART BRR Configuration ---------------------*/
  if (huart->Init.OverSampling == UART_OVERSAMPLING_8)
 800376e:	f8d7 30f4 	ldr.w	r3, [r7, #244]	@ 0xf4
 8003772:	69db      	ldr	r3, [r3, #28]
 8003774:	f5b3 4f00 	cmp.w	r3, #32768	@ 0x8000
 8003778:	f040 810c 	bne.w	8003994 <UART_SetConfig+0x2d8>
  {
    huart->Instance->BRR = UART_BRR_SAMPLING8(pclk, huart->Init.BaudRate);
 800377c:	f8d7 30fc 	ldr.w	r3, [r7, #252]	@ 0xfc
 8003780:	2200      	movs	r2, #0
 8003782:	f8c7 30e8 	str.w	r3, [r7, #232]	@ 0xe8
 8003786:	f8c7 20ec 	str.w	r2, [r7, #236]	@ 0xec
 800378a:	e9d7 453a 	ldrd	r4, r5, [r7, #232]	@ 0xe8
 800378e:	4622      	mov	r2, r4
 8003790:	462b      	mov	r3, r5
 8003792:	1891      	adds	r1, r2, r2
 8003794:	65b9      	str	r1, [r7, #88]	@ 0x58
 8003796:	415b      	adcs	r3, r3
 8003798:	65fb      	str	r3, [r7, #92]	@ 0x5c
 800379a:	e9d7 2316 	ldrd	r2, r3, [r7, #88]	@ 0x58
 800379e:	4621      	mov	r1, r4
 80037a0:	eb12 0801 	adds.w	r8, r2, r1
 80037a4:	4629      	mov	r1, r5
 80037a6:	eb43 0901 	adc.w	r9, r3, r1
 80037aa:	f04f 0200 	mov.w	r2, #0
 80037ae:	f04f 0300 	mov.w	r3, #0
 80037b2:	ea4f 03c9 	mov.w	r3, r9, lsl #3
 80037b6:	ea43 7358 	orr.w	r3, r3, r8, lsr #29
 80037ba:	ea4f 02c8 	mov.w	r2, r8, lsl #3
 80037be:	4690      	mov	r8, r2
 80037c0:	4699      	mov	r9, r3
 80037c2:	4623      	mov	r3, r4
 80037c4:	eb18 0303 	adds.w	r3, r8, r3
 80037c8:	f8c7 30e0 	str.w	r3, [r7, #224]	@ 0xe0
 80037cc:	462b      	mov	r3, r5
 80037ce:	eb49 0303 	adc.w	r3, r9, r3
 80037d2:	f8c7 30e4 	str.w	r3, [r7, #228]	@ 0xe4
 80037d6:	f8d7 30f4 	ldr.w	r3, [r7, #244]	@ 0xf4
 80037da:	685b      	ldr	r3, [r3, #4]
 80037dc:	2200      	movs	r2, #0
 80037de:	f8c7 30d8 	str.w	r3, [r7, #216]	@ 0xd8
 80037e2:	f8c7 20dc 	str.w	r2, [r7, #220]	@ 0xdc
 80037e6:	e9d7 1236 	ldrd	r1, r2, [r7, #216]	@ 0xd8
 80037ea:	460b      	mov	r3, r1
 80037ec:	18db      	adds	r3, r3, r3
 80037ee:	653b      	str	r3, [r7, #80]	@ 0x50
 80037f0:	4613      	mov	r3, r2
 80037f2:	eb42 0303 	adc.w	r3, r2, r3
 80037f6:	657b      	str	r3, [r7, #84]	@ 0x54
 80037f8:	e9d7 2314 	ldrd	r2, r3, [r7, #80]	@ 0x50
 80037fc:	e9d7 0138 	ldrd	r0, r1, [r7, #224]	@ 0xe0
 8003800:	f7fc ff0e 	bl	8000620 <__aeabi_uldivmod>
 8003804:	4602      	mov	r2, r0
 8003806:	460b      	mov	r3, r1
 8003808:	4b61      	ldr	r3, [pc, #388]	@ (8003990 <UART_SetConfig+0x2d4>)
 800380a:	fba3 2302 	umull	r2, r3, r3, r2
 800380e:	095b      	lsrs	r3, r3, #5
 8003810:	011c      	lsls	r4, r3, #4
 8003812:	f8d7 30fc 	ldr.w	r3, [r7, #252]	@ 0xfc
 8003816:	2200      	movs	r2, #0
 8003818:	f8c7 30d0 	str.w	r3, [r7, #208]	@ 0xd0
 800381c:	f8c7 20d4 	str.w	r2, [r7, #212]	@ 0xd4
 8003820:	e9d7 8934 	ldrd	r8, r9, [r7, #208]	@ 0xd0
 8003824:	4642      	mov	r2, r8
 8003826:	464b      	mov	r3, r9
 8003828:	1891      	adds	r1, r2, r2
 800382a:	64b9      	str	r1, [r7, #72]	@ 0x48
 800382c:	415b      	adcs	r3, r3
 800382e:	64fb      	str	r3, [r7, #76]	@ 0x4c
 8003830:	e9d7 2312 	ldrd	r2, r3, [r7, #72]	@ 0x48
 8003834:	4641      	mov	r1, r8
 8003836:	eb12 0a01 	adds.w	sl, r2, r1
 800383a:	4649      	mov	r1, r9
 800383c:	eb43 0b01 	adc.w	fp, r3, r1
 8003840:	f04f 0200 	mov.w	r2, #0
 8003844:	f04f 0300 	mov.w	r3, #0
 8003848:	ea4f 03cb 	mov.w	r3, fp, lsl #3
 800384c:	ea43 735a 	orr.w	r3, r3, sl, lsr #29
 8003850:	ea4f 02ca 	mov.w	r2, sl, lsl #3
 8003854:	4692      	mov	sl, r2
 8003856:	469b      	mov	fp, r3
 8003858:	4643      	mov	r3, r8
 800385a:	eb1a 0303 	adds.w	r3, sl, r3
 800385e:	f8c7 30c8 	str.w	r3, [r7, #200]	@ 0xc8
 8003862:	464b      	mov	r3, r9
 8003864:	eb4b 0303 	adc.w	r3, fp, r3
 8003868:	f8c7 30cc 	str.w	r3, [r7, #204]	@ 0xcc
 800386c:	f8d7 30f4 	ldr.w	r3, [r7, #244]	@ 0xf4
 8003870:	685b      	ldr	r3, [r3, #4]
 8003872:	2200      	movs	r2, #0
 8003874:	f8c7 30c0 	str.w	r3, [r7, #192]	@ 0xc0
 8003878:	f8c7 20c4 	str.w	r2, [r7, #196]	@ 0xc4
 800387c:	e9d7 1230 	ldrd	r1, r2, [r7, #192]	@ 0xc0
 8003880:	460b      	mov	r3, r1
 8003882:	18db      	adds	r3, r3, r3
 8003884:	643b      	str	r3, [r7, #64]	@ 0x40
 8003886:	4613      	mov	r3, r2
 8003888:	eb42 0303 	adc.w	r3, r2, r3
 800388c:	647b      	str	r3, [r7, #68]	@ 0x44
 800388e:	e9d7 2310 	ldrd	r2, r3, [r7, #64]	@ 0x40
 8003892:	e9d7 0132 	ldrd	r0, r1, [r7, #200]	@ 0xc8
 8003896:	f7fc fec3 	bl	8000620 <__aeabi_uldivmod>
 800389a:	4602      	mov	r2, r0
 800389c:	460b      	mov	r3, r1
 800389e:	4611      	mov	r1, r2
 80038a0:	4b3b      	ldr	r3, [pc, #236]	@ (8003990 <UART_SetConfig+0x2d4>)
 80038a2:	fba3 2301 	umull	r2, r3, r3, r1
 80038a6:	095b      	lsrs	r3, r3, #5
 80038a8:	2264      	movs	r2, #100	@ 0x64
 80038aa:	fb02 f303 	mul.w	r3, r2, r3
 80038ae:	1acb      	subs	r3, r1, r3
 80038b0:	00db      	lsls	r3, r3, #3
 80038b2:	f103 0232 	add.w	r2, r3, #50	@ 0x32
 80038b6:	4b36      	ldr	r3, [pc, #216]	@ (8003990 <UART_SetConfig+0x2d4>)
 80038b8:	fba3 2302 	umull	r2, r3, r3, r2
 80038bc:	095b      	lsrs	r3, r3, #5
 80038be:	005b      	lsls	r3, r3, #1
 80038c0:	f403 73f8 	and.w	r3, r3, #496	@ 0x1f0
 80038c4:	441c      	add	r4, r3
 80038c6:	f8d7 30fc 	ldr.w	r3, [r7, #252]	@ 0xfc
 80038ca:	2200      	movs	r2, #0
 80038cc:	f8c7 30b8 	str.w	r3, [r7, #184]	@ 0xb8
 80038d0:	f8c7 20bc 	str.w	r2, [r7, #188]	@ 0xbc
 80038d4:	e9d7 892e 	ldrd	r8, r9, [r7, #184]	@ 0xb8
 80038d8:	4642      	mov	r2, r8
 80038da:	464b      	mov	r3, r9
 80038dc:	1891      	adds	r1, r2, r2
 80038de:	63b9      	str	r1, [r7, #56]	@ 0x38
 80038e0:	415b      	adcs	r3, r3
 80038e2:	63fb      	str	r3, [r7, #60]	@ 0x3c
 80038e4:	e9d7 230e 	ldrd	r2, r3, [r7, #56]	@ 0x38
 80038e8:	4641      	mov	r1, r8
 80038ea:	1851      	adds	r1, r2, r1
 80038ec:	6339      	str	r1, [r7, #48]	@ 0x30
 80038ee:	4649      	mov	r1, r9
 80038f0:	414b      	adcs	r3, r1
 80038f2:	637b      	str	r3, [r7, #52]	@ 0x34
 80038f4:	f04f 0200 	mov.w	r2, #0
 80038f8:	f04f 0300 	mov.w	r3, #0
 80038fc:	e9d7 ab0c 	ldrd	sl, fp, [r7, #48]	@ 0x30
 8003900:	4659      	mov	r1, fp
 8003902:	00cb      	lsls	r3, r1, #3
 8003904:	4651      	mov	r1, sl
 8003906:	ea43 7351 	orr.w	r3, r3, r1, lsr #29
 800390a:	4651      	mov	r1, sl
 800390c:	00ca      	lsls	r2, r1, #3
 800390e:	4610      	mov	r0, r2
 8003910:	4619      	mov	r1, r3
 8003912:	4603      	mov	r3, r0
 8003914:	4642      	mov	r2, r8
 8003916:	189b      	adds	r3, r3, r2
 8003918:	f8c7 30b0 	str.w	r3, [r7, #176]	@ 0xb0
 800391c:	464b      	mov	r3, r9
 800391e:	460a      	mov	r2, r1
 8003920:	eb42 0303 	adc.w	r3, r2, r3
 8003924:	f8c7 30b4 	str.w	r3, [r7, #180]	@ 0xb4
 8003928:	f8d7 30f4 	ldr.w	r3, [r7, #244]	@ 0xf4
 800392c:	685b      	ldr	r3, [r3, #4]
 800392e:	2200      	movs	r2, #0
 8003930:	f8c7 30a8 	str.w	r3, [r7, #168]	@ 0xa8
 8003934:	f8c7 20ac 	str.w	r2, [r7, #172]	@ 0xac
 8003938:	e9d7 122a 	ldrd	r1, r2, [r7, #168]	@ 0xa8
 800393c:	460b      	mov	r3, r1
 800393e:	18db      	adds	r3, r3, r3
 8003940:	62bb      	str	r3, [r7, #40]	@ 0x28
 8003942:	4613      	mov	r3, r2
 8003944:	eb42 0303 	adc.w	r3, r2, r3
 8003948:	62fb      	str	r3, [r7, #44]	@ 0x2c
 800394a:	e9d7 230a 	ldrd	r2, r3, [r7, #40]	@ 0x28
 800394e:	e9d7 012c 	ldrd	r0, r1, [r7, #176]	@ 0xb0
 8003952:	f7fc fe65 	bl	8000620 <__aeabi_uldivmod>
 8003956:	4602      	mov	r2, r0
 8003958:	460b      	mov	r3, r1
 800395a:	4b0d      	ldr	r3, [pc, #52]	@ (8003990 <UART_SetConfig+0x2d4>)
 800395c:	fba3 1302 	umull	r1, r3, r3, r2
 8003960:	095b      	lsrs	r3, r3, #5
 8003962:	2164      	movs	r1, #100	@ 0x64
 8003964:	fb01 f303 	mul.w	r3, r1, r3
 8003968:	1ad3      	subs	r3, r2, r3
 800396a:	00db      	lsls	r3, r3, #3
 800396c:	3332      	adds	r3, #50	@ 0x32
 800396e:	4a08      	ldr	r2, [pc, #32]	@ (8003990 <UART_SetConfig+0x2d4>)
 8003970:	fba2 2303 	umull	r2, r3, r2, r3
 8003974:	095b      	lsrs	r3, r3, #5
 8003976:	f003 0207 	and.w	r2, r3, #7
 800397a:	f8d7 30f4 	ldr.w	r3, [r7, #244]	@ 0xf4
 800397e:	681b      	ldr	r3, [r3, #0]
 8003980:	4422      	add	r2, r4
 8003982:	609a      	str	r2, [r3, #8]
  }
  else
  {
    huart->Instance->BRR = UART_BRR_SAMPLING16(pclk, huart->Init.BaudRate);
  }
}
 8003984:	e106      	b.n	8003b94 <UART_SetConfig+0x4d8>
 8003986:	bf00      	nop
 8003988:	40011000 	.word	0x40011000
 800398c:	40011400 	.word	0x40011400
 8003990:	51eb851f 	.word	0x51eb851f
    huart->Instance->BRR = UART_BRR_SAMPLING16(pclk, huart->Init.BaudRate);
 8003994:	f8d7 30fc 	ldr.w	r3, [r7, #252]	@ 0xfc
 8003998:	2200      	movs	r2, #0
 800399a:	f8c7 30a0 	str.w	r3, [r7, #160]	@ 0xa0
 800399e:	f8c7 20a4 	str.w	r2, [r7, #164]	@ 0xa4
 80039a2:	e9d7 8928 	ldrd	r8, r9, [r7, #160]	@ 0xa0
 80039a6:	4642      	mov	r2, r8
 80039a8:	464b      	mov	r3, r9
 80039aa:	1891      	adds	r1, r2, r2
 80039ac:	6239      	str	r1, [r7, #32]
 80039ae:	415b      	adcs	r3, r3
 80039b0:	627b      	str	r3, [r7, #36]	@ 0x24
 80039b2:	e9d7 2308 	ldrd	r2, r3, [r7, #32]
 80039b6:	4641      	mov	r1, r8
 80039b8:	1854      	adds	r4, r2, r1
 80039ba:	4649      	mov	r1, r9
 80039bc:	eb43 0501 	adc.w	r5, r3, r1
 80039c0:	f04f 0200 	mov.w	r2, #0
 80039c4:	f04f 0300 	mov.w	r3, #0
 80039c8:	00eb      	lsls	r3, r5, #3
 80039ca:	ea43 7354 	orr.w	r3, r3, r4, lsr #29
 80039ce:	00e2      	lsls	r2, r4, #3
 80039d0:	4614      	mov	r4, r2
 80039d2:	461d      	mov	r5, r3
 80039d4:	4643      	mov	r3, r8
 80039d6:	18e3      	adds	r3, r4, r3
 80039d8:	f8c7 3098 	str.w	r3, [r7, #152]	@ 0x98
 80039dc:	464b      	mov	r3, r9
 80039de:	eb45 0303 	adc.w	r3, r5, r3
 80039e2:	f8c7 309c 	str.w	r3, [r7, #156]	@ 0x9c
 80039e6:	f8d7 30f4 	ldr.w	r3, [r7, #244]	@ 0xf4
 80039ea:	685b      	ldr	r3, [r3, #4]
 80039ec:	2200      	movs	r2, #0
 80039ee:	f8c7 3090 	str.w	r3, [r7, #144]	@ 0x90
 80039f2:	f8c7 2094 	str.w	r2, [r7, #148]	@ 0x94
 80039f6:	f04f 0200 	mov.w	r2, #0
 80039fa:	f04f 0300 	mov.w	r3, #0
 80039fe:	e9d7 4524 	ldrd	r4, r5, [r7, #144]	@ 0x90
 8003a02:	4629      	mov	r1, r5
 8003a04:	008b      	lsls	r3, r1, #2
 8003a06:	4621      	mov	r1, r4
 8003a08:	ea43 7391 	orr.w	r3, r3, r1, lsr #30
 8003a0c:	4621      	mov	r1, r4
 8003a0e:	008a      	lsls	r2, r1, #2
 8003a10:	e9d7 0126 	ldrd	r0, r1, [r7, #152]	@ 0x98
 8003a14:	f7fc fe04 	bl	8000620 <__aeabi_uldivmod>
 8003a18:	4602      	mov	r2, r0
 8003a1a:	460b      	mov	r3, r1
 8003a1c:	4b60      	ldr	r3, [pc, #384]	@ (8003ba0 <UART_SetConfig+0x4e4>)
 8003a1e:	fba3 2302 	umull	r2, r3, r3, r2
 8003a22:	095b      	lsrs	r3, r3, #5
 8003a24:	011c      	lsls	r4, r3, #4
 8003a26:	f8d7 30fc 	ldr.w	r3, [r7, #252]	@ 0xfc
 8003a2a:	2200      	movs	r2, #0
 8003a2c:	f8c7 3088 	str.w	r3, [r7, #136]	@ 0x88
 8003a30:	f8c7 208c 	str.w	r2, [r7, #140]	@ 0x8c
 8003a34:	e9d7 8922 	ldrd	r8, r9, [r7, #136]	@ 0x88
 8003a38:	4642      	mov	r2, r8
 8003a3a:	464b      	mov	r3, r9
 8003a3c:	1891      	adds	r1, r2, r2
 8003a3e:	61b9      	str	r1, [r7, #24]
 8003a40:	415b      	adcs	r3, r3
 8003a42:	61fb      	str	r3, [r7, #28]
 8003a44:	e9d7 2306 	ldrd	r2, r3, [r7, #24]
 8003a48:	4641      	mov	r1, r8
 8003a4a:	1851      	adds	r1, r2, r1
 8003a4c:	6139      	str	r1, [r7, #16]
 8003a4e:	4649      	mov	r1, r9
 8003a50:	414b      	adcs	r3, r1
 8003a52:	617b      	str	r3, [r7, #20]
 8003a54:	f04f 0200 	mov.w	r2, #0
 8003a58:	f04f 0300 	mov.w	r3, #0
 8003a5c:	e9d7 ab04 	ldrd	sl, fp, [r7, #16]
 8003a60:	4659      	mov	r1, fp
 8003a62:	00cb      	lsls	r3, r1, #3
 8003a64:	4651      	mov	r1, sl
 8003a66:	ea43 7351 	orr.w	r3, r3, r1, lsr #29
 8003a6a:	4651      	mov	r1, sl
 8003a6c:	00ca      	lsls	r2, r1, #3
 8003a6e:	4610      	mov	r0, r2
 8003a70:	4619      	mov	r1, r3
 8003a72:	4603      	mov	r3, r0
 8003a74:	4642      	mov	r2, r8
 8003a76:	189b      	adds	r3, r3, r2
 8003a78:	f8c7 3080 	str.w	r3, [r7, #128]	@ 0x80
 8003a7c:	464b      	mov	r3, r9
 8003a7e:	460a      	mov	r2, r1
 8003a80:	eb42 0303 	adc.w	r3, r2, r3
 8003a84:	f8c7 3084 	str.w	r3, [r7, #132]	@ 0x84
 8003a88:	f8d7 30f4 	ldr.w	r3, [r7, #244]	@ 0xf4
 8003a8c:	685b      	ldr	r3, [r3, #4]
 8003a8e:	2200      	movs	r2, #0
 8003a90:	67bb      	str	r3, [r7, #120]	@ 0x78
 8003a92:	67fa      	str	r2, [r7, #124]	@ 0x7c
 8003a94:	f04f 0200 	mov.w	r2, #0
 8003a98:	f04f 0300 	mov.w	r3, #0
 8003a9c:	e9d7 891e 	ldrd	r8, r9, [r7, #120]	@ 0x78
 8003aa0:	4649      	mov	r1, r9
 8003aa2:	008b      	lsls	r3, r1, #2
 8003aa4:	4641      	mov	r1, r8
 8003aa6:	ea43 7391 	orr.w	r3, r3, r1, lsr #30
 8003aaa:	4641      	mov	r1, r8
 8003aac:	008a      	lsls	r2, r1, #2
 8003aae:	e9d7 0120 	ldrd	r0, r1, [r7, #128]	@ 0x80
 8003ab2:	f7fc fdb5 	bl	8000620 <__aeabi_uldivmod>
 8003ab6:	4602      	mov	r2, r0
 8003ab8:	460b      	mov	r3, r1
 8003aba:	4611      	mov	r1, r2
 8003abc:	4b38      	ldr	r3, [pc, #224]	@ (8003ba0 <UART_SetConfig+0x4e4>)
 8003abe:	fba3 2301 	umull	r2, r3, r3, r1
 8003ac2:	095b      	lsrs	r3, r3, #5
 8003ac4:	2264      	movs	r2, #100	@ 0x64
 8003ac6:	fb02 f303 	mul.w	r3, r2, r3
 8003aca:	1acb      	subs	r3, r1, r3
 8003acc:	011b      	lsls	r3, r3, #4
 8003ace:	3332      	adds	r3, #50	@ 0x32
 8003ad0:	4a33      	ldr	r2, [pc, #204]	@ (8003ba0 <UART_SetConfig+0x4e4>)
 8003ad2:	fba2 2303 	umull	r2, r3, r2, r3
 8003ad6:	095b      	lsrs	r3, r3, #5
 8003ad8:	f003 03f0 	and.w	r3, r3, #240	@ 0xf0
 8003adc:	441c      	add	r4, r3
 8003ade:	f8d7 30fc 	ldr.w	r3, [r7, #252]	@ 0xfc
 8003ae2:	2200      	movs	r2, #0
 8003ae4:	673b      	str	r3, [r7, #112]	@ 0x70
 8003ae6:	677a      	str	r2, [r7, #116]	@ 0x74
 8003ae8:	e9d7 891c 	ldrd	r8, r9, [r7, #112]	@ 0x70
 8003aec:	4642      	mov	r2, r8
 8003aee:	464b      	mov	r3, r9
 8003af0:	1891      	adds	r1, r2, r2
 8003af2:	60b9      	str	r1, [r7, #8]
 8003af4:	415b      	adcs	r3, r3
 8003af6:	60fb      	str	r3, [r7, #12]
 8003af8:	e9d7 2302 	ldrd	r2, r3, [r7, #8]
 8003afc:	4641      	mov	r1, r8
 8003afe:	1851      	adds	r1, r2, r1
 8003b00:	6039      	str	r1, [r7, #0]
 8003b02:	4649      	mov	r1, r9
 8003b04:	414b      	adcs	r3, r1
 8003b06:	607b      	str	r3, [r7, #4]
 8003b08:	f04f 0200 	mov.w	r2, #0
 8003b0c:	f04f 0300 	mov.w	r3, #0
 8003b10:	e9d7 ab00 	ldrd	sl, fp, [r7]
 8003b14:	4659      	mov	r1, fp
 8003b16:	00cb      	lsls	r3, r1, #3
 8003b18:	4651      	mov	r1, sl
 8003b1a:	ea43 7351 	orr.w	r3, r3, r1, lsr #29
 8003b1e:	4651      	mov	r1, sl
 8003b20:	00ca      	lsls	r2, r1, #3
 8003b22:	4610      	mov	r0, r2
 8003b24:	4619      	mov	r1, r3
 8003b26:	4603      	mov	r3, r0
 8003b28:	4642      	mov	r2, r8
 8003b2a:	189b      	adds	r3, r3, r2
 8003b2c:	66bb      	str	r3, [r7, #104]	@ 0x68
 8003b2e:	464b      	mov	r3, r9
 8003b30:	460a      	mov	r2, r1
 8003b32:	eb42 0303 	adc.w	r3, r2, r3
 8003b36:	66fb      	str	r3, [r7, #108]	@ 0x6c
 8003b38:	f8d7 30f4 	ldr.w	r3, [r7, #244]	@ 0xf4
 8003b3c:	685b      	ldr	r3, [r3, #4]
 8003b3e:	2200      	movs	r2, #0
 8003b40:	663b      	str	r3, [r7, #96]	@ 0x60
 8003b42:	667a      	str	r2, [r7, #100]	@ 0x64
 8003b44:	f04f 0200 	mov.w	r2, #0
 8003b48:	f04f 0300 	mov.w	r3, #0
 8003b4c:	e9d7 8918 	ldrd	r8, r9, [r7, #96]	@ 0x60
 8003b50:	4649      	mov	r1, r9
 8003b52:	008b      	lsls	r3, r1, #2
 8003b54:	4641      	mov	r1, r8
 8003b56:	ea43 7391 	orr.w	r3, r3, r1, lsr #30
 8003b5a:	4641      	mov	r1, r8
 8003b5c:	008a      	lsls	r2, r1, #2
 8003b5e:	e9d7 011a 	ldrd	r0, r1, [r7, #104]	@ 0x68
 8003b62:	f7fc fd5d 	bl	8000620 <__aeabi_uldivmod>
 8003b66:	4602      	mov	r2, r0
 8003b68:	460b      	mov	r3, r1
 8003b6a:	4b0d      	ldr	r3, [pc, #52]	@ (8003ba0 <UART_SetConfig+0x4e4>)
 8003b6c:	fba3 1302 	umull	r1, r3, r3, r2
 8003b70:	095b      	lsrs	r3, r3, #5
 8003b72:	2164      	movs	r1, #100	@ 0x64
 8003b74:	fb01 f303 	mul.w	r3, r1, r3
 8003b78:	1ad3      	subs	r3, r2, r3
 8003b7a:	011b      	lsls	r3, r3, #4
 8003b7c:	3332      	adds	r3, #50	@ 0x32
 8003b7e:	4a08      	ldr	r2, [pc, #32]	@ (8003ba0 <UART_SetConfig+0x4e4>)
 8003b80:	fba2 2303 	umull	r2, r3, r2, r3
 8003b84:	095b      	lsrs	r3, r3, #5
 8003b86:	f003 020f 	and.w	r2, r3, #15
 8003b8a:	f8d7 30f4 	ldr.w	r3, [r7, #244]	@ 0xf4
 8003b8e:	681b      	ldr	r3, [r3, #0]
 8003b90:	4422      	add	r2, r4
 8003b92:	609a      	str	r2, [r3, #8]
}
 8003b94:	bf00      	nop
 8003b96:	f507 7780 	add.w	r7, r7, #256	@ 0x100
 8003b9a:	46bd      	mov	sp, r7
 8003b9c:	e8bd 8fb0 	ldmia.w	sp!, {r4, r5, r7, r8, r9, sl, fp, pc}
 8003ba0:	51eb851f 	.word	0x51eb851f

08003ba4 <memset>:
 8003ba4:	4402      	add	r2, r0
 8003ba6:	4603      	mov	r3, r0
 8003ba8:	4293      	cmp	r3, r2
 8003baa:	d100      	bne.n	8003bae <memset+0xa>
 8003bac:	4770      	bx	lr
 8003bae:	f803 1b01 	strb.w	r1, [r3], #1
 8003bb2:	e7f9      	b.n	8003ba8 <memset+0x4>

08003bb4 <__libc_init_array>:
 8003bb4:	b570      	push	{r4, r5, r6, lr}
 8003bb6:	4d0d      	ldr	r5, [pc, #52]	@ (8003bec <__libc_init_array+0x38>)
 8003bb8:	4c0d      	ldr	r4, [pc, #52]	@ (8003bf0 <__libc_init_array+0x3c>)
 8003bba:	1b64      	subs	r4, r4, r5
 8003bbc:	10a4      	asrs	r4, r4, #2
 8003bbe:	2600      	movs	r6, #0
 8003bc0:	42a6      	cmp	r6, r4
 8003bc2:	d109      	bne.n	8003bd8 <__libc_init_array+0x24>
 8003bc4:	4d0b      	ldr	r5, [pc, #44]	@ (8003bf4 <__libc_init_array+0x40>)
 8003bc6:	4c0c      	ldr	r4, [pc, #48]	@ (8003bf8 <__libc_init_array+0x44>)
 8003bc8:	f000 f818 	bl	8003bfc <_init>
 8003bcc:	1b64      	subs	r4, r4, r5
 8003bce:	10a4      	asrs	r4, r4, #2
 8003bd0:	2600      	movs	r6, #0
 8003bd2:	42a6      	cmp	r6, r4
 8003bd4:	d105      	bne.n	8003be2 <__libc_init_array+0x2e>
 8003bd6:	bd70      	pop	{r4, r5, r6, pc}
 8003bd8:	f855 3b04 	ldr.w	r3, [r5], #4
 8003bdc:	4798      	blx	r3
 8003bde:	3601      	adds	r6, #1
 8003be0:	e7ee      	b.n	8003bc0 <__libc_init_array+0xc>
 8003be2:	f855 3b04 	ldr.w	r3, [r5], #4
 8003be6:	4798      	blx	r3
 8003be8:	3601      	adds	r6, #1
 8003bea:	e7f2      	b.n	8003bd2 <__libc_init_array+0x1e>
 8003bec:	08003c34 	.word	0x08003c34
 8003bf0:	08003c34 	.word	0x08003c34
 8003bf4:	08003c34 	.word	0x08003c34
 8003bf8:	08003c38 	.word	0x08003c38

08003bfc <_init>:
 8003bfc:	b5f8      	push	{r3, r4, r5, r6, r7, lr}
 8003bfe:	bf00      	nop
 8003c00:	bcf8      	pop	{r3, r4, r5, r6, r7}
 8003c02:	bc08      	pop	{r3}
 8003c04:	469e      	mov	lr, r3
 8003c06:	4770      	bx	lr

08003c08 <_fini>:
 8003c08:	b5f8      	push	{r3, r4, r5, r6, r7, lr}
 8003c0a:	bf00      	nop
 8003c0c:	bcf8      	pop	{r3, r4, r5, r6, r7}
 8003c0e:	bc08      	pop	{r3}
 8003c10:	469e      	mov	lr, r3
 8003c12:	4770      	bx	lr
